
kernel.elf:     file format elf32-littlearm


Disassembly of section .text:

00008000 <main>:
    8000:	e3a03000 	mov	r3, #0
    8004:	e3433f20 	movt	r3, #16160	; 0x3f20
    8008:	e3a01901 	mov	r1, #16384	; 0x4000
    800c:	e3431f80 	movt	r1, #16256	; 0x3f80
    8010:	e3a04902 	mov	r4, #32768	; 0x8000
    8014:	e3a0e005 	mov	lr, #5
    8018:	e5932000 	ldr	r2, [r3]
    801c:	e3a0c078 	mov	ip, #120	; 0x78
    8020:	e3080480 	movw	r0, #33920	; 0x8480
    8024:	e340001e 	movt	r0, #30
    8028:	e3c22d07 	bic	r2, r2, #448	; 0x1c0
    802c:	e3822c01 	orr	r2, r2, #256	; 0x100
    8030:	e5832000 	str	r2, [r3]
    8034:	e5932000 	ldr	r2, [r3]
    8038:	e3c22c0e 	bic	r2, r2, #3584	; 0xe00
    803c:	e3822b02 	orr	r2, r2, #2048	; 0x800
    8040:	e5832000 	str	r2, [r3]
    8044:	e5932000 	ldr	r2, [r3]
    8048:	e3c22a07 	bic	r2, r2, #28672	; 0x7000
    804c:	e3822a01 	orr	r2, r2, #4096	; 0x1000
    8050:	e5832000 	str	r2, [r3]
    8054:	e5932028 	ldr	r2, [r3, #40]	; 0x28
    8058:	e3822010 	orr	r2, r2, #16
    805c:	e5832028 	str	r2, [r3, #40]	; 0x28
    8060:	e593201c 	ldr	r2, [r3, #28]
    8064:	e3c22010 	bic	r2, r2, #16
    8068:	e583201c 	str	r2, [r3, #28]
    806c:	e5814000 	str	r4, [r1]
    8070:	e581e008 	str	lr, [r1, #8]
    8074:	e581c00c 	str	ip, [r1, #12]
    8078:	e3500000 	cmp	r0, #0
    807c:	e2400001 	sub	r0, r0, #1
    8080:	1afffffc 	bne	8078 <main+0x78>
    8084:	e3a02901 	mov	r2, #16384	; 0x4000
    8088:	e3432f80 	movt	r2, #16256	; 0x3f80
    808c:	e3a00080 	mov	r0, #128	; 0x80
    8090:	e3a010af 	mov	r1, #175	; 0xaf
    8094:	e3083480 	movw	r3, #33920	; 0x8480
    8098:	e340301e 	movt	r3, #30
    809c:	e5820010 	str	r0, [r2, #16]
    80a0:	e5821010 	str	r1, [r2, #16]
    80a4:	e1a00003 	mov	r0, r3
    80a8:	e2433001 	sub	r3, r3, #1
    80ac:	e3500000 	cmp	r0, #0
    80b0:	1afffffb 	bne	80a4 <main+0xa4>
    80b4:	e3a03901 	mov	r3, #16384	; 0x4000
    80b8:	e3433f80 	movt	r3, #16256	; 0x3f80
    80bc:	e3a020a5 	mov	r2, #165	; 0xa5
    80c0:	e5830010 	str	r0, [r3, #16]
    80c4:	e5832010 	str	r2, [r3, #16]
    80c8:	e5932000 	ldr	r2, [r3]
    80cc:	e3822080 	orr	r2, r2, #128	; 0x80
    80d0:	e5832000 	str	r2, [r3]
    80d4:	e5933004 	ldr	r3, [r3, #4]
    80d8:	e3130c01 	tst	r3, #256	; 0x100
    80dc:	1a000018 	bne	8144 <delay>
    80e0:	e3a01000 	mov	r1, #0
    80e4:	e3431f20 	movt	r1, #16160	; 0x3f20
    80e8:	e591301c 	ldr	r3, [r1, #28]
    80ec:	e30826a0 	movw	r2, #34464	; 0x86a0
    80f0:	e3402001 	movt	r2, #1
    80f4:	e3833010 	orr	r3, r3, #16
    80f8:	e581301c 	str	r3, [r1, #28]
    80fc:	e5913028 	ldr	r3, [r1, #40]	; 0x28
    8100:	e3c33010 	bic	r3, r3, #16
    8104:	e5813028 	str	r3, [r1, #40]	; 0x28
    8108:	e3520000 	cmp	r2, #0
    810c:	e2422001 	sub	r2, r2, #1
    8110:	1afffffc 	bne	8108 <main+0x108>
    8114:	e5913028 	ldr	r3, [r1, #40]	; 0x28
    8118:	e3042240 	movw	r2, #16960	; 0x4240
    811c:	e340200f 	movt	r2, #15
    8120:	e3833010 	orr	r3, r3, #16
    8124:	e5813028 	str	r3, [r1, #40]	; 0x28
    8128:	e591301c 	ldr	r3, [r1, #28]
    812c:	e3c33010 	bic	r3, r3, #16
    8130:	e581301c 	str	r3, [r1, #28]
    8134:	e3520000 	cmp	r2, #0
    8138:	e2422001 	sub	r2, r2, #1
    813c:	1afffffc 	bne	8134 <main+0x134>
    8140:	eaffffe8 	b	80e8 <main+0xe8>

00008144 <delay>:
    8144:	e24dd008 	sub	sp, sp, #8
    8148:	e58d0004 	str	r0, [sp, #4]
    814c:	e59d3004 	ldr	r3, [sp, #4]
    8150:	e3530000 	cmp	r3, #0
    8154:	e2433001 	sub	r3, r3, #1
    8158:	e58d3004 	str	r3, [sp, #4]
    815c:	1afffffa 	bne	814c <delay+0x8>
    8160:	e28dd008 	add	sp, sp, #8
    8164:	e12fff1e 	bx	lr
