
obj/fat32.o：     文件格式 elf64-littleaarch64


Disassembly of section .group:

0000000000000000 <wm4.0.43635d29b272a3c253edecf6039a8820>:
   0:	00000001 	.inst	0x00000001 ; undefined
   4:	00000019 	.inst	0x00000019 ; undefined

Disassembly of section .group:

0000000000000000 <wm4.stdbool.h.29.07dce69c3b78884144b7f7bd19483461>:
   0:	00000001 	.inst	0x00000001 ; undefined
   4:	0000001b 	.inst	0x0000001b ; undefined

Disassembly of section .group:

0000000000000000 <wm4.stdintgcc.h.29.6d480f4ba0f60596e88234283d42444f>:
   0:	00000001 	.inst	0x00000001 ; undefined
   4:	0000001d 	.inst	0x0000001d ; undefined

Disassembly of section .group:

0000000000000000 <wm4.stddef.h.39.a38874c8f8a57e66301090908ec2a69f>:
   0:	00000001 	.inst	0x00000001 ; undefined
   4:	0000001f 	.inst	0x0000001f ; undefined

Disassembly of section .group:

0000000000000000 <wm4.list.h.21.6d50c736f76f919e8bd21fe0fadf45b3>:
   0:	00000001 	.inst	0x00000001 ; undefined
   4:	00000021 	.inst	0x00000021 ; undefined

Disassembly of section .group:

0000000000000000 <wm4.hashmap.h.19.3d051ddf4b1e255ab4ab6dc3425a03a3>:
   0:	00000001 	.inst	0x00000001 ; undefined
   4:	00000023 	.inst	0x00000023 ; undefined

Disassembly of section .group:

0000000000000000 <wm4.fat32.h.8.993764843fac06860725439f201ce13e>:
   0:	00000001 	.inst	0x00000001 ; undefined
   4:	00000025 	.inst	0x00000025 ; undefined

Disassembly of section .group:

0000000000000000 <wm4.sdcard.h.2.ec8f388bad883ea39d54ba98164eb128>:
   0:	00000001 	.inst	0x00000001 ; undefined
   4:	00000027 	.inst	0x00000027 ; undefined

Disassembly of section .group:

0000000000000000 <wm4.stdarg.h.31.b55da1089056868966f25de5dbfc7d3c>:
   0:	00000001 	.inst	0x00000001 ; undefined
   4:	00000029 	.inst	0x00000029 ; undefined

Disassembly of section .group:

0000000000000000 <wm4.console.h.6.c551f9a105870a4471c4cf4912f3688d>:
   0:	00000001 	.inst	0x00000001 ; undefined
   4:	0000002b 	.inst	0x0000002b ; undefined

Disassembly of section .group:

0000000000000000 <wm4.malloc.h.9.8845f152a1da4c62bcf5f5e656e4db49>:
   0:	00000001 	.inst	0x00000001 ; undefined
   4:	0000002d 	.inst	0x0000002d ; undefined

Disassembly of section .group:

0000000000000000 <wm4.assert.h.2.b70f19030aa61ded029ee82750072ee4>:
   0:	00000001 	.inst	0x00000001 ; undefined
   4:	0000002f 	.inst	0x0000002f ; undefined

Disassembly of section .text:

0000000000000000 <mbr_parse>:
   0:	d108c3ff 	sub	sp, sp, #0x230
   4:	a9007bfd 	stp	x29, x30, [sp]
   8:	910003fd 	mov	x29, sp
   c:	f9000fa0 	str	x0, [x29, #24]
  10:	f9000ba1 	str	x1, [x29, #16]
  14:	f9400fa0 	ldr	x0, [x29, #24]
  18:	f9400802 	ldr	x2, [x0, #16]
  1c:	9100a3a0 	add	x0, x29, #0x28
  20:	aa0003e1 	mov	x1, x0
  24:	52800000 	mov	w0, #0x0                   	// #0
  28:	d63f0040 	blr	x2
  2c:	7108001f 	cmp	w0, #0x200
  30:	540001e0 	b.eq	6c <mbr_parse+0x6c>  // b.none
  34:	90000000 	adrp	x0, 0 <_GLOBAL_OFFSET_TABLE_>
  38:	f9400000 	ldr	x0, [x0]
  3c:	b9400003 	ldr	w3, [x0]
  40:	90000000 	adrp	x0, 0 <mbr_parse>
  44:	91000002 	add	x2, x0, #0x0
  48:	90000000 	adrp	x0, 0 <mbr_parse>
  4c:	91000001 	add	x1, x0, #0x0
  50:	90000000 	adrp	x0, 0 <mbr_parse>
  54:	91000000 	add	x0, x0, #0x0
  58:	2a0303e4 	mov	w4, w3
  5c:	aa0203e3 	mov	x3, x2
  60:	aa0103e2 	mov	x2, x1
  64:	52800241 	mov	w1, #0x12                  	// #18
  68:	94000000 	bl	0 <__panic>
  6c:	f9400ba3 	ldr	x3, [x29, #16]
  70:	9100a3a0 	add	x0, x29, #0x28
  74:	9106d000 	add	x0, x0, #0x1b4
  78:	d2800142 	mov	x2, #0xa                   	// #10
  7c:	aa0003e1 	mov	x1, x0
  80:	aa0303e0 	mov	x0, x3
  84:	94000000 	bl	0 <memcpy>
  88:	f9400ba0 	ldr	x0, [x29, #16]
  8c:	9100f003 	add	x3, x0, #0x3c
  90:	9100a3a0 	add	x0, x29, #0x28
  94:	91080000 	add	x0, x0, #0x200
  98:	d2800042 	mov	x2, #0x2                   	// #2
  9c:	aa0003e1 	mov	x1, x0
  a0:	aa0303e0 	mov	x0, x3
  a4:	94000000 	bl	0 <memcpy>
  a8:	b9022fbf 	str	wzr, [x29, #556]
  ac:	528037c0 	mov	w0, #0x1be                 	// #446
  b0:	b9022ba0 	str	w0, [x29, #552]
  b4:	14000042 	b	1bc <mbr_parse+0x1bc>
  b8:	b9822ba0 	ldrsw	x0, [x29, #552]
  bc:	9100a3a1 	add	x1, x29, #0x28
  c0:	8b000020 	add	x0, x1, x0
  c4:	39400003 	ldrb	w3, [x0]
  c8:	f9400ba2 	ldr	x2, [x29, #16]
  cc:	b9822fa1 	ldrsw	x1, [x29, #556]
  d0:	aa0103e0 	mov	x0, x1
  d4:	d37ff800 	lsl	x0, x0, #1
  d8:	8b010000 	add	x0, x0, x1
  dc:	d37ef400 	lsl	x0, x0, #2
  e0:	8b000040 	add	x0, x2, x0
  e4:	2a0303e1 	mov	w1, w3
  e8:	39003001 	strb	w1, [x0, #12]
  ec:	b9822ba0 	ldrsw	x0, [x29, #552]
  f0:	91001000 	add	x0, x0, #0x4
  f4:	9100a3a1 	add	x1, x29, #0x28
  f8:	8b000020 	add	x0, x1, x0
  fc:	39400003 	ldrb	w3, [x0]
 100:	f9400ba2 	ldr	x2, [x29, #16]
 104:	b9822fa1 	ldrsw	x1, [x29, #556]
 108:	aa0103e0 	mov	x0, x1
 10c:	d37ff800 	lsl	x0, x0, #1
 110:	8b010000 	add	x0, x0, x1
 114:	d37ef400 	lsl	x0, x0, #2
 118:	8b000040 	add	x0, x2, x0
 11c:	2a0303e1 	mov	w1, w3
 120:	39003401 	strb	w1, [x0, #13]
 124:	b9822fa1 	ldrsw	x1, [x29, #556]
 128:	aa0103e0 	mov	x0, x1
 12c:	d37ff800 	lsl	x0, x0, #1
 130:	8b010000 	add	x0, x0, x1
 134:	d37ef400 	lsl	x0, x0, #2
 138:	f9400ba1 	ldr	x1, [x29, #16]
 13c:	8b000020 	add	x0, x1, x0
 140:	91004003 	add	x3, x0, #0x10
 144:	b9822ba0 	ldrsw	x0, [x29, #552]
 148:	91002000 	add	x0, x0, #0x8
 14c:	9100a3a1 	add	x1, x29, #0x28
 150:	8b000020 	add	x0, x1, x0
 154:	d2800082 	mov	x2, #0x4                   	// #4
 158:	aa0003e1 	mov	x1, x0
 15c:	aa0303e0 	mov	x0, x3
 160:	94000000 	bl	0 <memcpy>
 164:	b9822fa1 	ldrsw	x1, [x29, #556]
 168:	aa0103e0 	mov	x0, x1
 16c:	d37ff800 	lsl	x0, x0, #1
 170:	8b010000 	add	x0, x0, x1
 174:	d37ef400 	lsl	x0, x0, #2
 178:	f9400ba1 	ldr	x1, [x29, #16]
 17c:	8b000020 	add	x0, x1, x0
 180:	91005003 	add	x3, x0, #0x14
 184:	b9822ba0 	ldrsw	x0, [x29, #552]
 188:	91003000 	add	x0, x0, #0xc
 18c:	9100a3a1 	add	x1, x29, #0x28
 190:	8b000020 	add	x0, x1, x0
 194:	d2800082 	mov	x2, #0x4                   	// #4
 198:	aa0003e1 	mov	x1, x0
 19c:	aa0303e0 	mov	x0, x3
 1a0:	94000000 	bl	0 <memcpy>
 1a4:	b9422ba0 	ldr	w0, [x29, #552]
 1a8:	11004000 	add	w0, w0, #0x10
 1ac:	b9022ba0 	str	w0, [x29, #552]
 1b0:	b9422fa0 	ldr	w0, [x29, #556]
 1b4:	11000400 	add	w0, w0, #0x1
 1b8:	b9022fa0 	str	w0, [x29, #556]
 1bc:	b9422fa0 	ldr	w0, [x29, #556]
 1c0:	71000c1f 	cmp	w0, #0x3
 1c4:	54fff7ad 	b.le	b8 <mbr_parse+0xb8>
 1c8:	d503201f 	nop
 1cc:	a9407bfd 	ldp	x29, x30, [sp]
 1d0:	9108c3ff 	add	sp, sp, #0x230
 1d4:	d65f03c0 	ret

00000000000001d8 <ebpb_parse>:
 1d8:	a9bc7bfd 	stp	x29, x30, [sp, #-64]!
 1dc:	910003fd 	mov	x29, sp
 1e0:	f90017a0 	str	x0, [x29, #40]
 1e4:	f90013a1 	str	x1, [x29, #32]
 1e8:	f9000fa2 	str	x2, [x29, #24]
 1ec:	b9003fbf 	str	wzr, [x29, #60]
 1f0:	b9003bbf 	str	wzr, [x29, #56]
 1f4:	14000022 	b	27c <ebpb_parse+0xa4>
 1f8:	f94013a2 	ldr	x2, [x29, #32]
 1fc:	b9803ba1 	ldrsw	x1, [x29, #56]
 200:	aa0103e0 	mov	x0, x1
 204:	d37ff800 	lsl	x0, x0, #1
 208:	8b010000 	add	x0, x0, x1
 20c:	d37ef400 	lsl	x0, x0, #2
 210:	8b000040 	add	x0, x2, x0
 214:	39403400 	ldrb	w0, [x0, #13]
 218:	71002c1f 	cmp	w0, #0xb
 21c:	54000160 	b.eq	248 <ebpb_parse+0x70>  // b.none
 220:	f94013a2 	ldr	x2, [x29, #32]
 224:	b9803ba1 	ldrsw	x1, [x29, #56]
 228:	aa0103e0 	mov	x0, x1
 22c:	d37ff800 	lsl	x0, x0, #1
 230:	8b010000 	add	x0, x0, x1
 234:	d37ef400 	lsl	x0, x0, #2
 238:	8b000040 	add	x0, x2, x0
 23c:	39403400 	ldrb	w0, [x0, #13]
 240:	7100301f 	cmp	w0, #0xc
 244:	54000161 	b.ne	270 <ebpb_parse+0x98>  // b.any
 248:	f94013a2 	ldr	x2, [x29, #32]
 24c:	b9803ba1 	ldrsw	x1, [x29, #56]
 250:	aa0103e0 	mov	x0, x1
 254:	d37ff800 	lsl	x0, x0, #1
 258:	8b010000 	add	x0, x0, x1
 25c:	d37ef400 	lsl	x0, x0, #2
 260:	8b000040 	add	x0, x2, x0
 264:	b9401000 	ldr	w0, [x0, #16]
 268:	b9003fa0 	str	w0, [x29, #60]
 26c:	14000007 	b	288 <ebpb_parse+0xb0>
 270:	b9403ba0 	ldr	w0, [x29, #56]
 274:	11000400 	add	w0, w0, #0x1
 278:	b9003ba0 	str	w0, [x29, #56]
 27c:	b9403ba0 	ldr	w0, [x29, #56]
 280:	71000c1f 	cmp	w0, #0x3
 284:	54fffbad 	b.le	1f8 <ebpb_parse+0x20>
 288:	b9403fa0 	ldr	w0, [x29, #60]
 28c:	7100001f 	cmp	w0, #0x0
 290:	54000161 	b.ne	2bc <ebpb_parse+0xe4>  // b.any
 294:	90000000 	adrp	x0, 0 <mbr_parse>
 298:	91000002 	add	x2, x0, #0x0
 29c:	90000000 	adrp	x0, 0 <mbr_parse>
 2a0:	91000001 	add	x1, x0, #0x0
 2a4:	90000000 	adrp	x0, 0 <mbr_parse>
 2a8:	91000000 	add	x0, x0, #0x0
 2ac:	aa0203e3 	mov	x3, x2
 2b0:	aa0103e2 	mov	x2, x1
 2b4:	528005c1 	mov	w1, #0x2e                  	// #46
 2b8:	94000000 	bl	0 <__panic>
 2bc:	f94017a0 	ldr	x0, [x29, #40]
 2c0:	f9400802 	ldr	x2, [x0, #16]
 2c4:	f9400fa1 	ldr	x1, [x29, #24]
 2c8:	b9403fa0 	ldr	w0, [x29, #60]
 2cc:	d63f0040 	blr	x2
 2d0:	7108001f 	cmp	w0, #0x200
 2d4:	54000200 	b.eq	314 <ebpb_parse+0x13c>  // b.none
 2d8:	90000000 	adrp	x0, 0 <_GLOBAL_OFFSET_TABLE_>
 2dc:	f9400000 	ldr	x0, [x0]
 2e0:	b9400003 	ldr	w3, [x0]
 2e4:	90000000 	adrp	x0, 0 <mbr_parse>
 2e8:	91000002 	add	x2, x0, #0x0
 2ec:	90000000 	adrp	x0, 0 <mbr_parse>
 2f0:	91000001 	add	x1, x0, #0x0
 2f4:	90000000 	adrp	x0, 0 <mbr_parse>
 2f8:	91000000 	add	x0, x0, #0x0
 2fc:	2a0303e5 	mov	w5, w3
 300:	b9403fa4 	ldr	w4, [x29, #60]
 304:	aa0203e3 	mov	x3, x2
 308:	aa0103e2 	mov	x2, x1
 30c:	52800621 	mov	w1, #0x31                  	// #49
 310:	94000000 	bl	0 <__panic>
 314:	d503201f 	nop
 318:	a8c47bfd 	ldp	x29, x30, [sp], #64
 31c:	d65f03c0 	ret

0000000000000320 <fat32_init>:
 320:	d10a03ff 	sub	sp, sp, #0x280
 324:	a9007bfd 	stp	x29, x30, [sp]
 328:	910003fd 	mov	x29, sp
 32c:	f9000fa0 	str	x0, [x29, #24]
 330:	12800000 	mov	w0, #0xffffffff            	// #-1
 334:	b9027fa0 	str	w0, [x29, #636]
 338:	90000000 	adrp	x0, 0 <mbr_parse>
 33c:	91000001 	add	x1, x0, #0x0
 340:	90000000 	adrp	x0, 0 <mbr_parse>
 344:	91000000 	add	x0, x0, #0x0
 348:	d2800402 	mov	x2, #0x20                  	// #32
 34c:	94000000 	bl	0 <__debug>
 350:	90000000 	adrp	x0, 0 <mbr_parse>
 354:	91000001 	add	x1, x0, #0x0
 358:	90000000 	adrp	x0, 0 <mbr_parse>
 35c:	91000000 	add	x0, x0, #0x0
 360:	d2800402 	mov	x2, #0x20                  	// #32
 364:	94000000 	bl	0 <__debug>
 368:	90000000 	adrp	x0, 0 <mbr_parse>
 36c:	91000001 	add	x1, x0, #0x0
 370:	90000000 	adrp	x0, 0 <mbr_parse>
 374:	91000000 	add	x0, x0, #0x0
 378:	d2800402 	mov	x2, #0x20                  	// #32
 37c:	94000000 	bl	0 <__debug>
 380:	d2801700 	mov	x0, #0xb8                  	// #184
 384:	94000000 	bl	0 <malloc>
 388:	f90137a0 	str	x0, [x29, #616]
 38c:	f94137a0 	ldr	x0, [x29, #616]
 390:	f100001f 	cmp	x0, #0x0
 394:	54000161 	b.ne	3c0 <fat32_init+0xa0>  // b.any
 398:	90000000 	adrp	x0, 0 <mbr_parse>
 39c:	91000002 	add	x2, x0, #0x0
 3a0:	90000000 	adrp	x0, 0 <mbr_parse>
 3a4:	91000001 	add	x1, x0, #0x0
 3a8:	90000000 	adrp	x0, 0 <mbr_parse>
 3ac:	91000000 	add	x0, x0, #0x0
 3b0:	aa0203e3 	mov	x3, x2
 3b4:	aa0103e2 	mov	x2, x1
 3b8:	52800821 	mov	w1, #0x41                  	// #65
 3bc:	94000000 	bl	0 <__panic>
 3c0:	910883a0 	add	x0, x29, #0x220
 3c4:	aa0003e1 	mov	x1, x0
 3c8:	f9400fa0 	ldr	x0, [x29, #24]
 3cc:	97ffff0d 	bl	0 <mbr_parse>
 3d0:	910083a1 	add	x1, x29, #0x20
 3d4:	910883a0 	add	x0, x29, #0x220
 3d8:	aa0103e2 	mov	x2, x1
 3dc:	aa0003e1 	mov	x1, x0
 3e0:	f9400fa0 	ldr	x0, [x29, #24]
 3e4:	97ffff7d 	bl	1d8 <ebpb_parse>
 3e8:	b9027bbf 	str	wzr, [x29, #632]
 3ec:	14000010 	b	42c <fat32_init+0x10c>
 3f0:	b9827ba1 	ldrsw	x1, [x29, #632]
 3f4:	aa0103e0 	mov	x0, x1
 3f8:	d37ff800 	lsl	x0, x0, #1
 3fc:	8b010000 	add	x0, x0, x1
 400:	d37ef400 	lsl	x0, x0, #2
 404:	9108b3a1 	add	x1, x29, #0x22c
 408:	38606820 	ldrb	w0, [x1, x0]
 40c:	7102001f 	cmp	w0, #0x80
 410:	54000081 	b.ne	420 <fat32_init+0x100>  // b.any
 414:	b9427ba0 	ldr	w0, [x29, #632]
 418:	b9027fa0 	str	w0, [x29, #636]
 41c:	14000007 	b	438 <fat32_init+0x118>
 420:	b9427ba0 	ldr	w0, [x29, #632]
 424:	11000400 	add	w0, w0, #0x1
 428:	b9027ba0 	str	w0, [x29, #632]
 42c:	b9427ba0 	ldr	w0, [x29, #632]
 430:	71000c1f 	cmp	w0, #0x3
 434:	54fffded 	b.le	3f0 <fat32_init+0xd0>
 438:	b9427fa0 	ldr	w0, [x29, #636]
 43c:	3100041f 	cmn	w0, #0x1
 440:	54000161 	b.ne	46c <fat32_init+0x14c>  // b.any
 444:	90000000 	adrp	x0, 0 <mbr_parse>
 448:	91000002 	add	x2, x0, #0x0
 44c:	90000000 	adrp	x0, 0 <mbr_parse>
 450:	91000001 	add	x1, x0, #0x0
 454:	90000000 	adrp	x0, 0 <mbr_parse>
 458:	91000000 	add	x0, x0, #0x0
 45c:	aa0203e3 	mov	x3, x2
 460:	aa0103e2 	mov	x2, x1
 464:	528009a1 	mov	w1, #0x4d                  	// #77
 468:	94000000 	bl	0 <__panic>
 46c:	b9827fa1 	ldrsw	x1, [x29, #636]
 470:	aa0103e0 	mov	x0, x1
 474:	d37ff800 	lsl	x0, x0, #1
 478:	8b010000 	add	x0, x0, x1
 47c:	d37ef400 	lsl	x0, x0, #2
 480:	9108c3a1 	add	x1, x29, #0x230
 484:	b8606820 	ldr	w0, [x1, x0]
 488:	79405fa1 	ldrh	w1, [x29, #46]
 48c:	0b010001 	add	w1, w0, w1
 490:	f94137a0 	ldr	x0, [x29, #616]
 494:	b900a801 	str	w1, [x0, #168]
 498:	f94137a0 	ldr	x0, [x29, #616]
 49c:	91028003 	add	x3, x0, #0xa0
 4a0:	910083a0 	add	x0, x29, #0x20
 4a4:	91002c00 	add	x0, x0, #0xb
 4a8:	d2800042 	mov	x2, #0x2                   	// #2
 4ac:	aa0003e1 	mov	x1, x0
 4b0:	aa0303e0 	mov	x0, x3
 4b4:	94000000 	bl	0 <memcpy>
 4b8:	3940b7a1 	ldrb	w1, [x29, #45]
 4bc:	f94137a0 	ldr	x0, [x29, #616]
 4c0:	39028801 	strb	w1, [x0, #162]
 4c4:	b9404fa1 	ldr	w1, [x29, #76]
 4c8:	f94137a0 	ldr	x0, [x29, #616]
 4cc:	b900b001 	str	w1, [x0, #176]
 4d0:	3901e3bf 	strb	wzr, [x29, #120]
 4d4:	b94047a1 	ldr	w1, [x29, #68]
 4d8:	f94137a0 	ldr	x0, [x29, #616]
 4dc:	b900a401 	str	w1, [x0, #164]
 4e0:	f94137a0 	ldr	x0, [x29, #616]
 4e4:	b940a801 	ldr	w1, [x0, #168]
 4e8:	3940c3a0 	ldrb	w0, [x29, #48]
 4ec:	2a0003e2 	mov	w2, w0
 4f0:	b94047a0 	ldr	w0, [x29, #68]
 4f4:	1b007c40 	mul	w0, w2, w0
 4f8:	0b000021 	add	w1, w1, w0
 4fc:	f94137a0 	ldr	x0, [x29, #616]
 500:	b900ac01 	str	w1, [x0, #172]
 504:	f94137a0 	ldr	x0, [x29, #616]
 508:	f90133a0 	str	x0, [x29, #608]
 50c:	f94133a0 	ldr	x0, [x29, #608]
 510:	91002001 	add	x1, x0, #0x8
 514:	f9400fa0 	ldr	x0, [x29, #24]
 518:	aa0103e2 	mov	x2, x1
 51c:	aa0003e3 	mov	x3, x0
 520:	a9400460 	ldp	x0, x1, [x3]
 524:	a9000440 	stp	x0, x1, [x2]
 528:	f9400860 	ldr	x0, [x3, #16]
 52c:	f9000840 	str	x0, [x2, #16]
 530:	f94137a0 	ldr	x0, [x29, #616]
 534:	79414000 	ldrh	w0, [x0, #160]
 538:	2a0003e1 	mov	w1, w0
 53c:	f94133a0 	ldr	x0, [x29, #608]
 540:	b9000401 	str	w1, [x0, #4]
 544:	f94137a0 	ldr	x0, [x29, #616]
 548:	b940a801 	ldr	w1, [x0, #168]
 54c:	f94133a0 	ldr	x0, [x29, #608]
 550:	b9000001 	str	w1, [x0]
 554:	b90277bf 	str	wzr, [x29, #628]
 558:	1400000a 	b	580 <fat32_init+0x260>
 55c:	f94133a0 	ldr	x0, [x29, #608]
 560:	91008001 	add	x1, x0, #0x20
 564:	b98277a0 	ldrsw	x0, [x29, #628]
 568:	d37df000 	lsl	x0, x0, #3
 56c:	8b000020 	add	x0, x1, x0
 570:	f900001f 	str	xzr, [x0]
 574:	b94277a0 	ldr	w0, [x29, #628]
 578:	11000400 	add	w0, w0, #0x1
 57c:	b90277a0 	str	w0, [x29, #628]
 580:	b94277a0 	ldr	w0, [x29, #628]
 584:	71003c1f 	cmp	w0, #0xf
 588:	54fffead 	b.le	55c <fat32_init+0x23c>
 58c:	f94137a0 	ldr	x0, [x29, #616]
 590:	a9407bfd 	ldp	x29, x30, [sp]
 594:	910a03ff 	add	sp, sp, #0x280
 598:	d65f03c0 	ret

000000000000059c <fat32_read_cluster>:
 59c:	a9bb7bfd 	stp	x29, x30, [sp, #-80]!
 5a0:	910003fd 	mov	x29, sp
 5a4:	f90017a0 	str	x0, [x29, #40]
 5a8:	f90013a1 	str	x1, [x29, #32]
 5ac:	f9000fa2 	str	x2, [x29, #24]
 5b0:	f94017a0 	ldr	x0, [x29, #40]
 5b4:	39428800 	ldrb	w0, [x0, #162]
 5b8:	b90043a0 	str	w0, [x29, #64]
 5bc:	f94017a0 	ldr	x0, [x29, #40]
 5c0:	79414000 	ldrh	w0, [x0, #160]
 5c4:	b9003fa0 	str	w0, [x29, #60]
 5c8:	f90027bf 	str	xzr, [x29, #72]
 5cc:	b90047bf 	str	wzr, [x29, #68]
 5d0:	1400001d 	b	644 <fat32_read_cluster+0xa8>
 5d4:	f94017a3 	ldr	x3, [x29, #40]
 5d8:	f94017a0 	ldr	x0, [x29, #40]
 5dc:	b940ac00 	ldr	w0, [x0, #172]
 5e0:	2a0003e1 	mov	w1, w0
 5e4:	b94043a2 	ldr	w2, [x29, #64]
 5e8:	f94013a0 	ldr	x0, [x29, #32]
 5ec:	d1000800 	sub	x0, x0, #0x2
 5f0:	9b007c40 	mul	x0, x2, x0
 5f4:	8b000021 	add	x1, x1, x0
 5f8:	b94047a0 	ldr	w0, [x29, #68]
 5fc:	8b000024 	add	x4, x1, x0
 600:	b94047a1 	ldr	w1, [x29, #68]
 604:	b9403fa0 	ldr	w0, [x29, #60]
 608:	1b007c20 	mul	w0, w1, w0
 60c:	2a0003e0 	mov	w0, w0
 610:	f9400fa1 	ldr	x1, [x29, #24]
 614:	8b000020 	add	x0, x1, x0
 618:	aa0003e2 	mov	x2, x0
 61c:	aa0403e1 	mov	x1, x4
 620:	aa0303e0 	mov	x0, x3
 624:	94000000 	bl	0 <cd_read_sector>
 628:	aa0003e1 	mov	x1, x0
 62c:	f94027a0 	ldr	x0, [x29, #72]
 630:	8b010000 	add	x0, x0, x1
 634:	f90027a0 	str	x0, [x29, #72]
 638:	b94047a0 	ldr	w0, [x29, #68]
 63c:	11000400 	add	w0, w0, #0x1
 640:	b90047a0 	str	w0, [x29, #68]
 644:	b94047a1 	ldr	w1, [x29, #68]
 648:	b94043a0 	ldr	w0, [x29, #64]
 64c:	6b00003f 	cmp	w1, w0
 650:	54fffc23 	b.cc	5d4 <fat32_read_cluster+0x38>  // b.lo, b.ul, b.last
 654:	f94027a0 	ldr	x0, [x29, #72]
 658:	a8c57bfd 	ldp	x29, x30, [sp], #80
 65c:	d65f03c0 	ret

0000000000000660 <fat32_read_chain>:
 660:	a9b97bfd 	stp	x29, x30, [sp, #-112]!
 664:	910003fd 	mov	x29, sp
 668:	f90017a0 	str	x0, [x29, #40]
 66c:	f90013a1 	str	x1, [x29, #32]
 670:	f9000fa2 	str	x2, [x29, #24]
 674:	f94017a0 	ldr	x0, [x29, #40]
 678:	f9002ba0 	str	x0, [x29, #80]
 67c:	f94017a0 	ldr	x0, [x29, #40]
 680:	b940a800 	ldr	w0, [x0, #168]
 684:	2a0003e0 	mov	w0, w0
 688:	f90027a0 	str	x0, [x29, #72]
 68c:	f90037bf 	str	xzr, [x29, #104]
 690:	f94017a0 	ldr	x0, [x29, #40]
 694:	79414000 	ldrh	w0, [x0, #160]
 698:	b90047a0 	str	w0, [x29, #68]
 69c:	f94017a0 	ldr	x0, [x29, #40]
 6a0:	39428800 	ldrb	w0, [x0, #162]
 6a4:	39010fa0 	strb	w0, [x29, #67]
 6a8:	f94013a0 	ldr	x0, [x29, #32]
 6ac:	b90063a0 	str	w0, [x29, #96]
 6b0:	b94063a1 	ldr	w1, [x29, #96]
 6b4:	b94047a0 	ldr	w0, [x29, #68]
 6b8:	1ac00820 	udiv	w0, w1, w0
 6bc:	b9005fa0 	str	w0, [x29, #92]
 6c0:	b94047a0 	ldr	w0, [x29, #68]
 6c4:	94000000 	bl	0 <malloc>
 6c8:	f9001fa0 	str	x0, [x29, #56]
 6cc:	f9401fa0 	ldr	x0, [x29, #56]
 6d0:	f100001f 	cmp	x0, #0x0
 6d4:	54000061 	b.ne	6e0 <fat32_read_chain+0x80>  // b.any
 6d8:	d2800000 	mov	x0, #0x0                   	// #0
 6dc:	14000099 	b	940 <fat32_read_chain+0x2e0>
 6e0:	b9405fa1 	ldr	w1, [x29, #92]
 6e4:	f94027a0 	ldr	x0, [x29, #72]
 6e8:	8b000020 	add	x0, x1, x0
 6ec:	f9401fa2 	ldr	x2, [x29, #56]
 6f0:	aa0003e1 	mov	x1, x0
 6f4:	f9402ba0 	ldr	x0, [x29, #80]
 6f8:	94000000 	bl	0 <cd_read_sector>
 6fc:	f100001f 	cmp	x0, #0x0
 700:	540001e1 	b.ne	73c <fat32_read_chain+0xdc>  // b.any
 704:	b9405fa1 	ldr	w1, [x29, #92]
 708:	f94027a0 	ldr	x0, [x29, #72]
 70c:	8b000023 	add	x3, x1, x0
 710:	90000000 	adrp	x0, 0 <mbr_parse>
 714:	91000002 	add	x2, x0, #0x0
 718:	90000000 	adrp	x0, 0 <mbr_parse>
 71c:	91000001 	add	x1, x0, #0x0
 720:	90000000 	adrp	x0, 0 <mbr_parse>
 724:	91000000 	add	x0, x0, #0x0
 728:	aa0303e4 	mov	x4, x3
 72c:	aa0203e3 	mov	x3, x2
 730:	aa0103e2 	mov	x2, x1
 734:	52801381 	mov	w1, #0x9c                  	// #156
 738:	94000000 	bl	0 <__panic>
 73c:	b94063a0 	ldr	w0, [x29, #96]
 740:	b94047a1 	ldr	w1, [x29, #68]
 744:	1ac10802 	udiv	w2, w0, w1
 748:	b94047a1 	ldr	w1, [x29, #68]
 74c:	1b017c41 	mul	w1, w2, w1
 750:	4b010000 	sub	w0, w0, w1
 754:	2a0003e0 	mov	w0, w0
 758:	d37ef400 	lsl	x0, x0, #2
 75c:	f9401fa1 	ldr	x1, [x29, #56]
 760:	8b000020 	add	x0, x1, x0
 764:	b9400000 	ldr	w0, [x0]
 768:	12006c00 	and	w0, w0, #0xfffffff
 76c:	b90067a0 	str	w0, [x29, #100]
 770:	b94067a0 	ldr	w0, [x29, #100]
 774:	7100001f 	cmp	w0, #0x0
 778:	54000d80 	b.eq	928 <fat32_read_chain+0x2c8>  // b.none
 77c:	39410fa1 	ldrb	w1, [x29, #67]
 780:	b94047a0 	ldr	w0, [x29, #68]
 784:	1b007c20 	mul	w0, w1, w0
 788:	2a0003e0 	mov	w0, w0
 78c:	94000000 	bl	0 <malloc>
 790:	aa0003e1 	mov	x1, x0
 794:	f9400fa0 	ldr	x0, [x29, #24]
 798:	f9000001 	str	x1, [x0]
 79c:	f9400fa0 	ldr	x0, [x29, #24]
 7a0:	f9400000 	ldr	x0, [x0]
 7a4:	f100001f 	cmp	x0, #0x0
 7a8:	54000c40 	b.eq	930 <fat32_read_chain+0x2d0>  // b.none
 7ac:	b94063a3 	ldr	w3, [x29, #96]
 7b0:	f9400fa0 	ldr	x0, [x29, #24]
 7b4:	f9400001 	ldr	x1, [x0]
 7b8:	f94037a0 	ldr	x0, [x29, #104]
 7bc:	8b000020 	add	x0, x1, x0
 7c0:	aa0003e2 	mov	x2, x0
 7c4:	aa0303e1 	mov	x1, x3
 7c8:	f94017a0 	ldr	x0, [x29, #40]
 7cc:	94000000 	bl	59c <fat32_read_cluster>
 7d0:	aa0003e1 	mov	x1, x0
 7d4:	f94037a0 	ldr	x0, [x29, #104]
 7d8:	8b010000 	add	x0, x0, x1
 7dc:	f90037a0 	str	x0, [x29, #104]
 7e0:	b94067a0 	ldr	w0, [x29, #100]
 7e4:	51000801 	sub	w1, w0, #0x2
 7e8:	529ffda0 	mov	w0, #0xffed                	// #65517
 7ec:	72a1ffe0 	movk	w0, #0xfff, lsl #16
 7f0:	6b00003f 	cmp	w1, w0
 7f4:	54000888 	b.hi	904 <fat32_read_chain+0x2a4>  // b.pmore
 7f8:	b94067a1 	ldr	w1, [x29, #100]
 7fc:	b94047a0 	ldr	w0, [x29, #68]
 800:	1ac00820 	udiv	w0, w1, w0
 804:	b9405fa1 	ldr	w1, [x29, #92]
 808:	6b00003f 	cmp	w1, w0
 80c:	54000380 	b.eq	87c <fat32_read_chain+0x21c>  // b.none
 810:	b94067a1 	ldr	w1, [x29, #100]
 814:	b94047a0 	ldr	w0, [x29, #68]
 818:	1ac00820 	udiv	w0, w1, w0
 81c:	b9005fa0 	str	w0, [x29, #92]
 820:	b9405fa1 	ldr	w1, [x29, #92]
 824:	f94027a0 	ldr	x0, [x29, #72]
 828:	8b000020 	add	x0, x1, x0
 82c:	f9401fa2 	ldr	x2, [x29, #56]
 830:	aa0003e1 	mov	x1, x0
 834:	f9402ba0 	ldr	x0, [x29, #80]
 838:	94000000 	bl	0 <cd_read_sector>
 83c:	f100001f 	cmp	x0, #0x0
 840:	540001e1 	b.ne	87c <fat32_read_chain+0x21c>  // b.any
 844:	b9405fa1 	ldr	w1, [x29, #92]
 848:	f94027a0 	ldr	x0, [x29, #72]
 84c:	8b000023 	add	x3, x1, x0
 850:	90000000 	adrp	x0, 0 <mbr_parse>
 854:	91000002 	add	x2, x0, #0x0
 858:	90000000 	adrp	x0, 0 <mbr_parse>
 85c:	91000001 	add	x1, x0, #0x0
 860:	90000000 	adrp	x0, 0 <mbr_parse>
 864:	91000000 	add	x0, x0, #0x0
 868:	aa0303e4 	mov	x4, x3
 86c:	aa0203e3 	mov	x3, x2
 870:	aa0103e2 	mov	x2, x1
 874:	52801801 	mov	w1, #0xc0                  	// #192
 878:	94000000 	bl	0 <__panic>
 87c:	b94067a0 	ldr	w0, [x29, #100]
 880:	b90063a0 	str	w0, [x29, #96]
 884:	b94067a0 	ldr	w0, [x29, #100]
 888:	b94047a1 	ldr	w1, [x29, #68]
 88c:	1ac10802 	udiv	w2, w0, w1
 890:	b94047a1 	ldr	w1, [x29, #68]
 894:	1b017c41 	mul	w1, w2, w1
 898:	4b010000 	sub	w0, w0, w1
 89c:	2a0003e0 	mov	w0, w0
 8a0:	d37ef400 	lsl	x0, x0, #2
 8a4:	f9401fa1 	ldr	x1, [x29, #56]
 8a8:	8b000020 	add	x0, x1, x0
 8ac:	b9400000 	ldr	w0, [x0]
 8b0:	12006c00 	and	w0, w0, #0xfffffff
 8b4:	b90067a0 	str	w0, [x29, #100]
 8b8:	f9400fa0 	ldr	x0, [x29, #24]
 8bc:	f9400002 	ldr	x2, [x0]
 8c0:	39410fa1 	ldrb	w1, [x29, #67]
 8c4:	b94047a0 	ldr	w0, [x29, #68]
 8c8:	1b007c20 	mul	w0, w1, w0
 8cc:	2a0003e1 	mov	w1, w0
 8d0:	f94037a0 	ldr	x0, [x29, #104]
 8d4:	8b000020 	add	x0, x1, x0
 8d8:	aa0003e1 	mov	x1, x0
 8dc:	aa0203e0 	mov	x0, x2
 8e0:	94000000 	bl	0 <realloc>
 8e4:	aa0003e1 	mov	x1, x0
 8e8:	f9400fa0 	ldr	x0, [x29, #24]
 8ec:	f9000001 	str	x1, [x0]
 8f0:	f9400fa0 	ldr	x0, [x29, #24]
 8f4:	f100001f 	cmp	x0, #0x0
 8f8:	54fff5a1 	b.ne	7ac <fat32_read_chain+0x14c>  // b.any
 8fc:	f90037bf 	str	xzr, [x29, #104]
 900:	1400000d 	b	934 <fat32_read_chain+0x2d4>
 904:	d503201f 	nop
 908:	90000000 	adrp	x0, 0 <mbr_parse>
 90c:	91000001 	add	x1, x0, #0x0
 910:	90000000 	adrp	x0, 0 <mbr_parse>
 914:	91000000 	add	x0, x0, #0x0
 918:	f94013a3 	ldr	x3, [x29, #32]
 91c:	f94037a2 	ldr	x2, [x29, #104]
 920:	94000000 	bl	0 <__debug>
 924:	14000004 	b	934 <fat32_read_chain+0x2d4>
 928:	d503201f 	nop
 92c:	14000002 	b	934 <fat32_read_chain+0x2d4>
 930:	d503201f 	nop
 934:	f9401fa0 	ldr	x0, [x29, #56]
 938:	94000000 	bl	0 <free>
 93c:	f94037a0 	ldr	x0, [x29, #104]
 940:	a8c77bfd 	ldp	x29, x30, [sp], #112
 944:	d65f03c0 	ret

0000000000000948 <fat32_find_entry>:
 948:	d10903ff 	sub	sp, sp, #0x240
 94c:	a9007bfd 	stp	x29, x30, [sp]
 950:	910003fd 	mov	x29, sp
 954:	f90017a0 	str	x0, [x29, #40]
 958:	f90013a1 	str	x1, [x29, #32]
 95c:	f9000fa2 	str	x2, [x29, #24]
 960:	f9011fbf 	str	xzr, [x29, #568]
 964:	14000037 	b	a40 <fat32_find_entry+0xf8>
 968:	f9411fa0 	ldr	x0, [x29, #568]
 96c:	d37be800 	lsl	x0, x0, #5
 970:	f94013a1 	ldr	x1, [x29, #32]
 974:	8b000020 	add	x0, x1, x0
 978:	9100c3a1 	add	x1, x29, #0x30
 97c:	94000000 	bl	a78 <fat32_parse_name>
 980:	f9011ba0 	str	x0, [x29, #560]
 984:	3940c3a0 	ldrb	w0, [x29, #48]
 988:	7100001f 	cmp	w0, #0x0
 98c:	540000e1 	b.ne	9a8 <fat32_find_entry+0x60>  // b.any
 990:	f9411ba1 	ldr	x1, [x29, #560]
 994:	f9411fa0 	ldr	x0, [x29, #568]
 998:	8b000020 	add	x0, x1, x0
 99c:	91000400 	add	x0, x0, #0x1
 9a0:	f9011fa0 	str	x0, [x29, #568]
 9a4:	14000027 	b	a40 <fat32_find_entry+0xf8>
 9a8:	9100c3a2 	add	x2, x29, #0x30
 9ac:	90000000 	adrp	x0, 0 <mbr_parse>
 9b0:	91000001 	add	x1, x0, #0x0
 9b4:	90000000 	adrp	x0, 0 <mbr_parse>
 9b8:	91000000 	add	x0, x0, #0x0
 9bc:	94000000 	bl	0 <__debug>
 9c0:	9100c3a0 	add	x0, x29, #0x30
 9c4:	aa0003e1 	mov	x1, x0
 9c8:	f94017a0 	ldr	x0, [x29, #40]
 9cc:	94000000 	bl	0 <strcmp>
 9d0:	7100001f 	cmp	w0, #0x0
 9d4:	540002c1 	b.ne	a2c <fat32_find_entry+0xe4>  // b.any
 9d8:	f9411fa1 	ldr	x1, [x29, #568]
 9dc:	f9411ba0 	ldr	x0, [x29, #560]
 9e0:	8b000020 	add	x0, x1, x0
 9e4:	d37be800 	lsl	x0, x0, #5
 9e8:	f94013a1 	ldr	x1, [x29, #32]
 9ec:	8b000020 	add	x0, x1, x0
 9f0:	aa0003e2 	mov	x2, x0
 9f4:	90000000 	adrp	x0, 0 <mbr_parse>
 9f8:	91000001 	add	x1, x0, #0x0
 9fc:	90000000 	adrp	x0, 0 <mbr_parse>
 a00:	91000000 	add	x0, x0, #0x0
 a04:	aa0203e3 	mov	x3, x2
 a08:	f94017a2 	ldr	x2, [x29, #40]
 a0c:	94000000 	bl	0 <__debug>
 a10:	f9411fa1 	ldr	x1, [x29, #568]
 a14:	f9411ba0 	ldr	x0, [x29, #560]
 a18:	8b000020 	add	x0, x1, x0
 a1c:	d37be800 	lsl	x0, x0, #5
 a20:	f94013a1 	ldr	x1, [x29, #32]
 a24:	8b000020 	add	x0, x1, x0
 a28:	14000011 	b	a6c <fat32_find_entry+0x124>
 a2c:	f9411ba1 	ldr	x1, [x29, #560]
 a30:	f9411fa0 	ldr	x0, [x29, #568]
 a34:	8b000020 	add	x0, x1, x0
 a38:	91000400 	add	x0, x0, #0x1
 a3c:	f9011fa0 	str	x0, [x29, #568]
 a40:	f9411fa1 	ldr	x1, [x29, #568]
 a44:	f9400fa0 	ldr	x0, [x29, #24]
 a48:	eb00003f 	cmp	x1, x0
 a4c:	54fff8e3 	b.cc	968 <fat32_find_entry+0x20>  // b.lo, b.ul, b.last
 a50:	90000000 	adrp	x0, 0 <mbr_parse>
 a54:	91000001 	add	x1, x0, #0x0
 a58:	90000000 	adrp	x0, 0 <mbr_parse>
 a5c:	91000000 	add	x0, x0, #0x0
 a60:	f94017a2 	ldr	x2, [x29, #40]
 a64:	94000000 	bl	0 <__debug>
 a68:	d2800000 	mov	x0, #0x0                   	// #0
 a6c:	a9407bfd 	ldp	x29, x30, [sp]
 a70:	910903ff 	add	sp, sp, #0x240
 a74:	d65f03c0 	ret

0000000000000a78 <fat32_parse_name>:
 a78:	a9bb7bfd 	stp	x29, x30, [sp, #-80]!
 a7c:	910003fd 	mov	x29, sp
 a80:	f9000bf3 	str	x19, [sp, #16]
 a84:	f90017a0 	str	x0, [x29, #40]
 a88:	f90013a1 	str	x1, [x29, #32]
 a8c:	f90027bf 	str	xzr, [x29, #72]
 a90:	b90047bf 	str	wzr, [x29, #68]
 a94:	b90043bf 	str	wzr, [x29, #64]
 a98:	f94017a0 	ldr	x0, [x29, #40]
 a9c:	39402c00 	ldrb	w0, [x0, #11]
 aa0:	71003c1f 	cmp	w0, #0xf
 aa4:	54000841 	b.ne	bac <fat32_parse_name+0x134>  // b.any
 aa8:	14000039 	b	b8c <fat32_parse_name+0x114>
 aac:	f94027a0 	ldr	x0, [x29, #72]
 ab0:	d37be800 	lsl	x0, x0, #5
 ab4:	f94017a1 	ldr	x1, [x29, #40]
 ab8:	8b000020 	add	x0, x1, x0
 abc:	39400000 	ldrb	w0, [x0]
 ac0:	12001000 	and	w0, w0, #0x1f
 ac4:	51000401 	sub	w1, w0, #0x1
 ac8:	528001a0 	mov	w0, #0xd                   	// #13
 acc:	1b007c20 	mul	w0, w1, w0
 ad0:	93407c00 	sxtw	x0, w0
 ad4:	f94013a1 	ldr	x1, [x29, #32]
 ad8:	8b000020 	add	x0, x1, x0
 adc:	f9001fa0 	str	x0, [x29, #56]
 ae0:	f94027a0 	ldr	x0, [x29, #72]
 ae4:	d37be800 	lsl	x0, x0, #5
 ae8:	f94017a1 	ldr	x1, [x29, #40]
 aec:	8b000020 	add	x0, x1, x0
 af0:	91000401 	add	x1, x0, #0x1
 af4:	9100c3a0 	add	x0, x29, #0x30
 af8:	d2800142 	mov	x2, #0xa                   	// #10
 afc:	94000000 	bl	0 <utf16ntoascii>
 b00:	d28000a2 	mov	x2, #0x5                   	// #5
 b04:	aa0003e1 	mov	x1, x0
 b08:	f9401fa0 	ldr	x0, [x29, #56]
 b0c:	94000000 	bl	0 <strncpy>
 b10:	f9401fa0 	ldr	x0, [x29, #56]
 b14:	91001413 	add	x19, x0, #0x5
 b18:	f94027a0 	ldr	x0, [x29, #72]
 b1c:	d37be800 	lsl	x0, x0, #5
 b20:	f94017a1 	ldr	x1, [x29, #40]
 b24:	8b000020 	add	x0, x1, x0
 b28:	91003801 	add	x1, x0, #0xe
 b2c:	9100c3a0 	add	x0, x29, #0x30
 b30:	d2800182 	mov	x2, #0xc                   	// #12
 b34:	94000000 	bl	0 <utf16ntoascii>
 b38:	d28000c2 	mov	x2, #0x6                   	// #6
 b3c:	aa0003e1 	mov	x1, x0
 b40:	aa1303e0 	mov	x0, x19
 b44:	94000000 	bl	0 <strncpy>
 b48:	f9401fa0 	ldr	x0, [x29, #56]
 b4c:	91002c13 	add	x19, x0, #0xb
 b50:	f94027a0 	ldr	x0, [x29, #72]
 b54:	d37be800 	lsl	x0, x0, #5
 b58:	f94017a1 	ldr	x1, [x29, #40]
 b5c:	8b000020 	add	x0, x1, x0
 b60:	91007001 	add	x1, x0, #0x1c
 b64:	9100c3a0 	add	x0, x29, #0x30
 b68:	d2800082 	mov	x2, #0x4                   	// #4
 b6c:	94000000 	bl	0 <utf16ntoascii>
 b70:	d2800042 	mov	x2, #0x2                   	// #2
 b74:	aa0003e1 	mov	x1, x0
 b78:	aa1303e0 	mov	x0, x19
 b7c:	94000000 	bl	0 <strncpy>
 b80:	f94027a0 	ldr	x0, [x29, #72]
 b84:	91000400 	add	x0, x0, #0x1
 b88:	f90027a0 	str	x0, [x29, #72]
 b8c:	f94027a0 	ldr	x0, [x29, #72]
 b90:	d37be800 	lsl	x0, x0, #5
 b94:	f94017a1 	ldr	x1, [x29, #40]
 b98:	8b000020 	add	x0, x1, x0
 b9c:	39402c00 	ldrb	w0, [x0, #11]
 ba0:	71003c1f 	cmp	w0, #0xf
 ba4:	54fff840 	b.eq	aac <fat32_parse_name+0x34>  // b.none
 ba8:	14000050 	b	ce8 <fat32_parse_name+0x270>
 bac:	f94017a0 	ldr	x0, [x29, #40]
 bb0:	39400000 	ldrb	w0, [x0]
 bb4:	7103941f 	cmp	w0, #0xe5
 bb8:	54000181 	b.ne	be8 <fat32_parse_name+0x170>  // b.any
 bbc:	f94013a0 	ldr	x0, [x29, #32]
 bc0:	3900001f 	strb	wzr, [x0]
 bc4:	14000049 	b	ce8 <fat32_parse_name+0x270>
 bc8:	f94017a1 	ldr	x1, [x29, #40]
 bcc:	b98047a0 	ldrsw	x0, [x29, #68]
 bd0:	38606820 	ldrb	w0, [x1, x0]
 bd4:	7100001f 	cmp	w0, #0x0
 bd8:	54000100 	b.eq	bf8 <fat32_parse_name+0x180>  // b.none
 bdc:	b94047a0 	ldr	w0, [x29, #68]
 be0:	11000400 	add	w0, w0, #0x1
 be4:	b90047a0 	str	w0, [x29, #68]
 be8:	b94047a0 	ldr	w0, [x29, #68]
 bec:	71001c1f 	cmp	w0, #0x7
 bf0:	54fffecd 	b.le	bc8 <fat32_parse_name+0x150>
 bf4:	14000002 	b	bfc <fat32_parse_name+0x184>
 bf8:	d503201f 	nop
 bfc:	f94017a0 	ldr	x0, [x29, #40]
 c00:	b98047a1 	ldrsw	x1, [x29, #68]
 c04:	aa0103e2 	mov	x2, x1
 c08:	aa0003e1 	mov	x1, x0
 c0c:	f94013a0 	ldr	x0, [x29, #32]
 c10:	94000000 	bl	0 <strncpy>
 c14:	f94017a0 	ldr	x0, [x29, #40]
 c18:	39402000 	ldrb	w0, [x0, #8]
 c1c:	7100001f 	cmp	w0, #0x0
 c20:	540005c0 	b.eq	cd8 <fat32_parse_name+0x260>  // b.none
 c24:	b94047a0 	ldr	w0, [x29, #68]
 c28:	b90043a0 	str	w0, [x29, #64]
 c2c:	b90047bf 	str	wzr, [x29, #68]
 c30:	b98043a0 	ldrsw	x0, [x29, #64]
 c34:	f94013a1 	ldr	x1, [x29, #32]
 c38:	8b000020 	add	x0, x1, x0
 c3c:	528005c1 	mov	w1, #0x2e                  	// #46
 c40:	39000001 	strb	w1, [x0]
 c44:	14000009 	b	c68 <fat32_parse_name+0x1f0>
 c48:	f94017a1 	ldr	x1, [x29, #40]
 c4c:	b98047a0 	ldrsw	x0, [x29, #68]
 c50:	38606820 	ldrb	w0, [x1, x0]
 c54:	7100001f 	cmp	w0, #0x0
 c58:	54000100 	b.eq	c78 <fat32_parse_name+0x200>  // b.none
 c5c:	b94047a0 	ldr	w0, [x29, #68]
 c60:	11000400 	add	w0, w0, #0x1
 c64:	b90047a0 	str	w0, [x29, #68]
 c68:	b94047a0 	ldr	w0, [x29, #68]
 c6c:	7100081f 	cmp	w0, #0x2
 c70:	54fffecd 	b.le	c48 <fat32_parse_name+0x1d0>
 c74:	14000002 	b	c7c <fat32_parse_name+0x204>
 c78:	d503201f 	nop
 c7c:	b98043a0 	ldrsw	x0, [x29, #64]
 c80:	91000400 	add	x0, x0, #0x1
 c84:	f94013a1 	ldr	x1, [x29, #32]
 c88:	8b000033 	add	x19, x1, x0
 c8c:	f94017a0 	ldr	x0, [x29, #40]
 c90:	91002001 	add	x1, x0, #0x8
 c94:	9100c3a0 	add	x0, x29, #0x30
 c98:	d2800062 	mov	x2, #0x3                   	// #3
 c9c:	94000000 	bl	0 <utf16ntoascii>
 ca0:	aa0003e1 	mov	x1, x0
 ca4:	b98047a0 	ldrsw	x0, [x29, #68]
 ca8:	aa0003e2 	mov	x2, x0
 cac:	aa1303e0 	mov	x0, x19
 cb0:	94000000 	bl	0 <strncpy>
 cb4:	b94043a0 	ldr	w0, [x29, #64]
 cb8:	11000401 	add	w1, w0, #0x1
 cbc:	b94047a0 	ldr	w0, [x29, #68]
 cc0:	0b000020 	add	w0, w1, w0
 cc4:	93407c00 	sxtw	x0, w0
 cc8:	f94013a1 	ldr	x1, [x29, #32]
 ccc:	8b000020 	add	x0, x1, x0
 cd0:	3900001f 	strb	wzr, [x0]
 cd4:	14000005 	b	ce8 <fat32_parse_name+0x270>
 cd8:	b98047a0 	ldrsw	x0, [x29, #68]
 cdc:	f94013a1 	ldr	x1, [x29, #32]
 ce0:	8b000020 	add	x0, x1, x0
 ce4:	3900001f 	strb	wzr, [x0]
 ce8:	f94027a0 	ldr	x0, [x29, #72]
 cec:	f9400bf3 	ldr	x19, [sp, #16]
 cf0:	a8c57bfd 	ldp	x29, x30, [sp], #80
 cf4:	d65f03c0 	ret

0000000000000cf8 <fat32_open>:
 cf8:	a9b87bfd 	stp	x29, x30, [sp, #-128]!
 cfc:	910003fd 	mov	x29, sp
 d00:	f9000fa0 	str	x0, [x29, #24]
 d04:	f9000ba1 	str	x1, [x29, #16]
 d08:	f90027bf 	str	xzr, [x29, #72]
 d0c:	52800020 	mov	w0, #0x1                   	// #1
 d10:	39019fa0 	strb	w0, [x29, #103]
 d14:	f9002fbf 	str	xzr, [x29, #88]
 d18:	9100a3a0 	add	x0, x29, #0x28
 d1c:	d2800402 	mov	x2, #0x20                  	// #32
 d20:	52800001 	mov	w1, #0x0                   	// #0
 d24:	94000000 	bl	0 <memset>
 d28:	f9400ba0 	ldr	x0, [x29, #16]
 d2c:	f100001f 	cmp	x0, #0x0
 d30:	54000161 	b.ne	d5c <fat32_open+0x64>  // b.any
 d34:	90000000 	adrp	x0, 0 <mbr_parse>
 d38:	91000002 	add	x2, x0, #0x0
 d3c:	90000000 	adrp	x0, 0 <mbr_parse>
 d40:	91000001 	add	x1, x0, #0x0
 d44:	90000000 	adrp	x0, 0 <mbr_parse>
 d48:	91000000 	add	x0, x0, #0x0
 d4c:	aa0203e3 	mov	x3, x2
 d50:	aa0103e2 	mov	x2, x1
 d54:	52802881 	mov	w1, #0x144                 	// #324
 d58:	94000000 	bl	0 <__panic>
 d5c:	f9400ba0 	ldr	x0, [x29, #16]
 d60:	94000000 	bl	0 <strlen>
 d64:	91000400 	add	x0, x0, #0x1
 d68:	94000000 	bl	0 <malloc>
 d6c:	f9002ba0 	str	x0, [x29, #80]
 d70:	f9402ba0 	ldr	x0, [x29, #80]
 d74:	f100001f 	cmp	x0, #0x0
 d78:	54000161 	b.ne	da4 <fat32_open+0xac>  // b.any
 d7c:	90000000 	adrp	x0, 0 <mbr_parse>
 d80:	91000002 	add	x2, x0, #0x0
 d84:	90000000 	adrp	x0, 0 <mbr_parse>
 d88:	91000001 	add	x1, x0, #0x0
 d8c:	90000000 	adrp	x0, 0 <mbr_parse>
 d90:	91000000 	add	x0, x0, #0x0
 d94:	aa0203e3 	mov	x3, x2
 d98:	aa0103e2 	mov	x2, x1
 d9c:	52802941 	mov	w1, #0x14a                 	// #330
 da0:	94000000 	bl	0 <__panic>
 da4:	f9400ba1 	ldr	x1, [x29, #16]
 da8:	f9402ba0 	ldr	x0, [x29, #80]
 dac:	94000000 	bl	0 <strcpy>
 db0:	90000000 	adrp	x0, 0 <mbr_parse>
 db4:	91000000 	add	x0, x0, #0x0
 db8:	aa0003e1 	mov	x1, x0
 dbc:	f9402ba0 	ldr	x0, [x29, #80]
 dc0:	94000000 	bl	0 <strtok>
 dc4:	f9003fa0 	str	x0, [x29, #120]
 dc8:	14000045 	b	edc <fat32_open+0x1e4>
 dcc:	39419fa0 	ldrb	w0, [x29, #103]
 dd0:	7100001f 	cmp	w0, #0x0
 dd4:	54000240 	b.eq	e1c <fat32_open+0x124>  // b.none
 dd8:	f9400fa0 	ldr	x0, [x29, #24]
 ddc:	b940b000 	ldr	w0, [x0, #176]
 de0:	2a0003e0 	mov	w0, w0
 de4:	910123a1 	add	x1, x29, #0x48
 de8:	aa0103e2 	mov	x2, x1
 dec:	aa0003e1 	mov	x1, x0
 df0:	f9400fa0 	ldr	x0, [x29, #24]
 df4:	94000000 	bl	660 <fat32_read_chain>
 df8:	d345fc00 	lsr	x0, x0, #5
 dfc:	f90037a0 	str	x0, [x29, #104]
 e00:	90000000 	adrp	x0, 0 <mbr_parse>
 e04:	91000001 	add	x1, x0, #0x0
 e08:	90000000 	adrp	x0, 0 <mbr_parse>
 e0c:	91000000 	add	x0, x0, #0x0
 e10:	94000000 	bl	0 <__debug>
 e14:	39019fbf 	strb	wzr, [x29, #103]
 e18:	1400001c 	b	e88 <fat32_open+0x190>
 e1c:	f9403ba0 	ldr	x0, [x29, #112]
 e20:	39402c00 	ldrb	w0, [x0, #11]
 e24:	121c0000 	and	w0, w0, #0x10
 e28:	7100001f 	cmp	w0, #0x0
 e2c:	54000c40 	b.eq	fb4 <fat32_open+0x2bc>  // b.none
 e30:	f9403ba0 	ldr	x0, [x29, #112]
 e34:	9100a3a2 	add	x2, x29, #0x28
 e38:	aa0003e3 	mov	x3, x0
 e3c:	a9400460 	ldp	x0, x1, [x3]
 e40:	a9000440 	stp	x0, x1, [x2]
 e44:	a9410460 	ldp	x0, x1, [x3, #16]
 e48:	a9010440 	stp	x0, x1, [x2, #16]
 e4c:	f94027a0 	ldr	x0, [x29, #72]
 e50:	94000000 	bl	0 <free>
 e54:	79407ba0 	ldrh	w0, [x29, #60]
 e58:	53103c00 	lsl	w0, w0, #16
 e5c:	2a0003e1 	mov	w1, w0
 e60:	794087a0 	ldrh	w0, [x29, #66]
 e64:	0b000020 	add	w0, w1, w0
 e68:	2a0003e0 	mov	w0, w0
 e6c:	910123a1 	add	x1, x29, #0x48
 e70:	aa0103e2 	mov	x2, x1
 e74:	aa0003e1 	mov	x1, x0
 e78:	f9400fa0 	ldr	x0, [x29, #24]
 e7c:	94000000 	bl	660 <fat32_read_chain>
 e80:	d345fc00 	lsr	x0, x0, #5
 e84:	f90037a0 	str	x0, [x29, #104]
 e88:	90000000 	adrp	x0, 0 <mbr_parse>
 e8c:	91000001 	add	x1, x0, #0x0
 e90:	90000000 	adrp	x0, 0 <mbr_parse>
 e94:	91000000 	add	x0, x0, #0x0
 e98:	f9403fa2 	ldr	x2, [x29, #120]
 e9c:	94000000 	bl	0 <__debug>
 ea0:	f94027a0 	ldr	x0, [x29, #72]
 ea4:	f94037a2 	ldr	x2, [x29, #104]
 ea8:	aa0003e1 	mov	x1, x0
 eac:	f9403fa0 	ldr	x0, [x29, #120]
 eb0:	94000000 	bl	948 <fat32_find_entry>
 eb4:	f9003ba0 	str	x0, [x29, #112]
 eb8:	f9403ba0 	ldr	x0, [x29, #112]
 ebc:	f100001f 	cmp	x0, #0x0
 ec0:	540007e0 	b.eq	fbc <fat32_open+0x2c4>  // b.none
 ec4:	90000000 	adrp	x0, 0 <mbr_parse>
 ec8:	91000000 	add	x0, x0, #0x0
 ecc:	aa0003e1 	mov	x1, x0
 ed0:	d2800000 	mov	x0, #0x0                   	// #0
 ed4:	94000000 	bl	0 <strtok>
 ed8:	f9003fa0 	str	x0, [x29, #120]
 edc:	f9403fa0 	ldr	x0, [x29, #120]
 ee0:	f100001f 	cmp	x0, #0x0
 ee4:	54fff741 	b.ne	dcc <fat32_open+0xd4>  // b.any
 ee8:	d2800400 	mov	x0, #0x20                  	// #32
 eec:	94000000 	bl	0 <malloc>
 ef0:	f9002fa0 	str	x0, [x29, #88]
 ef4:	f9402fa0 	ldr	x0, [x29, #88]
 ef8:	f100001f 	cmp	x0, #0x0
 efc:	54000640 	b.eq	fc4 <fat32_open+0x2cc>  // b.none
 f00:	39419fa0 	ldrb	w0, [x29, #103]
 f04:	7100001f 	cmp	w0, #0x0
 f08:	54000120 	b.eq	f2c <fat32_open+0x234>  // b.none
 f0c:	f9400fa0 	ldr	x0, [x29, #24]
 f10:	b940b001 	ldr	w1, [x0, #176]
 f14:	f9402fa0 	ldr	x0, [x29, #88]
 f18:	b9000001 	str	w1, [x0]
 f1c:	f9402fa0 	ldr	x0, [x29, #88]
 f20:	52800201 	mov	w1, #0x10                  	// #16
 f24:	39004001 	strb	w1, [x0, #16]
 f28:	14000028 	b	fc8 <fat32_open+0x2d0>
 f2c:	79407ba0 	ldrh	w0, [x29, #60]
 f30:	53103c00 	lsl	w0, w0, #16
 f34:	794087a1 	ldrh	w1, [x29, #66]
 f38:	0b010001 	add	w1, w0, w1
 f3c:	f9402fa0 	ldr	x0, [x29, #88]
 f40:	b9000001 	str	w1, [x0]
 f44:	3940cfa1 	ldrb	w1, [x29, #51]
 f48:	f9402fa0 	ldr	x0, [x29, #88]
 f4c:	39004001 	strb	w1, [x0, #16]
 f50:	f9402fa0 	ldr	x0, [x29, #88]
 f54:	f9400fa1 	ldr	x1, [x29, #24]
 f58:	f9000401 	str	x1, [x0, #8]
 f5c:	3940d7a1 	ldrb	w1, [x29, #53]
 f60:	f9402fa0 	ldr	x0, [x29, #88]
 f64:	39004401 	strb	w1, [x0, #17]
 f68:	79406fa1 	ldrh	w1, [x29, #54]
 f6c:	f9402fa0 	ldr	x0, [x29, #88]
 f70:	79002401 	strh	w1, [x0, #18]
 f74:	794073a1 	ldrh	w1, [x29, #56]
 f78:	f9402fa0 	ldr	x0, [x29, #88]
 f7c:	79002801 	strh	w1, [x0, #20]
 f80:	794077a1 	ldrh	w1, [x29, #58]
 f84:	f9402fa0 	ldr	x0, [x29, #88]
 f88:	79002c01 	strh	w1, [x0, #22]
 f8c:	79407fa1 	ldrh	w1, [x29, #62]
 f90:	f9402fa0 	ldr	x0, [x29, #88]
 f94:	79003001 	strh	w1, [x0, #24]
 f98:	794083a1 	ldrh	w1, [x29, #64]
 f9c:	f9402fa0 	ldr	x0, [x29, #88]
 fa0:	79003401 	strh	w1, [x0, #26]
 fa4:	b94047a1 	ldr	w1, [x29, #68]
 fa8:	f9402fa0 	ldr	x0, [x29, #88]
 fac:	b9001c01 	str	w1, [x0, #28]
 fb0:	14000006 	b	fc8 <fat32_open+0x2d0>
 fb4:	d503201f 	nop
 fb8:	14000004 	b	fc8 <fat32_open+0x2d0>
 fbc:	d503201f 	nop
 fc0:	14000002 	b	fc8 <fat32_open+0x2d0>
 fc4:	d503201f 	nop
 fc8:	f9402ba0 	ldr	x0, [x29, #80]
 fcc:	94000000 	bl	0 <free>
 fd0:	f94027a0 	ldr	x0, [x29, #72]
 fd4:	f100001f 	cmp	x0, #0x0
 fd8:	54000060 	b.eq	fe4 <fat32_open+0x2ec>  // b.none
 fdc:	f94027a0 	ldr	x0, [x29, #72]
 fe0:	94000000 	bl	0 <free>
 fe4:	f9402fa0 	ldr	x0, [x29, #88]
 fe8:	a8c87bfd 	ldp	x29, x30, [sp], #128
 fec:	d65f03c0 	ret
