
obj/fat32.o：     文件格式 elf64-littleaarch64


Disassembly of section .group:

0000000000000000 <wm4.0.2f0cafa158a1f1390eedbc95aefbed15>:
   0:	00000001 	.inst	0x00000001 ; undefined
   4:	0000001c 	.inst	0x0000001c ; undefined

Disassembly of section .group:

0000000000000000 <wm4.stdbool.h.29.07dce69c3b78884144b7f7bd19483461>:
   0:	00000001 	.inst	0x00000001 ; undefined
   4:	0000001e 	.inst	0x0000001e ; undefined

Disassembly of section .group:

0000000000000000 <wm4.stdintgcc.h.29.6d480f4ba0f60596e88234283d42444f>:
   0:	00000001 	.inst	0x00000001 ; undefined
   4:	00000020 	.inst	0x00000020 ; undefined

Disassembly of section .group:

0000000000000000 <wm4.stddef.h.39.a38874c8f8a57e66301090908ec2a69f>:
   0:	00000001 	.inst	0x00000001 ; undefined
   4:	00000022 	.inst	0x00000022 ; undefined

Disassembly of section .group:

0000000000000000 <wm4.list.h.21.6d50c736f76f919e8bd21fe0fadf45b3>:
   0:	00000001 	.inst	0x00000001 ; undefined
   4:	00000024 	.inst	0x00000024 ; undefined

Disassembly of section .group:

0000000000000000 <wm4.hashmap.h.19.3d051ddf4b1e255ab4ab6dc3425a03a3>:
   0:	00000001 	.inst	0x00000001 ; undefined
   4:	00000026 	.inst	0x00000026 ; undefined

Disassembly of section .group:

0000000000000000 <wm4.fat32.h.8.993764843fac06860725439f201ce13e>:
   0:	00000001 	.inst	0x00000001 ; undefined
   4:	00000028 	.inst	0x00000028 ; undefined

Disassembly of section .group:

0000000000000000 <wm4.sdcard.h.2.ec8f388bad883ea39d54ba98164eb128>:
   0:	00000001 	.inst	0x00000001 ; undefined
   4:	0000002a 	.inst	0x0000002a ; undefined

Disassembly of section .group:

0000000000000000 <wm4.stdarg.h.31.b55da1089056868966f25de5dbfc7d3c>:
   0:	00000001 	.inst	0x00000001 ; undefined
   4:	0000002c 	.inst	0x0000002c ; undefined

Disassembly of section .group:

0000000000000000 <wm4.console.h.6.c551f9a105870a4471c4cf4912f3688d>:
   0:	00000001 	.inst	0x00000001 ; undefined
   4:	0000002e 	.inst	0x0000002e ; undefined

Disassembly of section .group:

0000000000000000 <wm4.malloc.h.9.8845f152a1da4c62bcf5f5e656e4db49>:
   0:	00000001 	.inst	0x00000001 ; undefined
   4:	00000030 	.inst	0x00000030 ; undefined

Disassembly of section .group:

0000000000000000 <wm4.assert.h.2.b70f19030aa61ded029ee82750072ee4>:
   0:	00000001 	.inst	0x00000001 ; undefined
   4:	00000032 	.inst	0x00000032 ; undefined

Disassembly of section .text:

0000000000000000 <fat32_init>:
   0:	d11203ff 	sub	sp, sp, #0x480
   4:	a9007bfd 	stp	x29, x30, [sp]
   8:	910003fd 	mov	x29, sp
   c:	a90153f3 	stp	x19, x20, [sp, #16]
  10:	a9025bf5 	stp	x21, x22, [sp, #32]
  14:	a90363f7 	stp	x23, x24, [sp, #48]
  18:	aa0003f7 	mov	x23, x0
  1c:	90000013 	adrp	x19, 0 <fat32_init>
  20:	91000273 	add	x19, x19, #0x0
  24:	d2800402 	mov	x2, #0x20                  	// #32
  28:	90000001 	adrp	x1, 0 <fat32_init>
  2c:	91000021 	add	x1, x1, #0x0
  30:	aa1303e0 	mov	x0, x19
  34:	94000000 	bl	0 <__debug>
  38:	d2800402 	mov	x2, #0x20                  	// #32
  3c:	90000001 	adrp	x1, 0 <fat32_init>
  40:	91000021 	add	x1, x1, #0x0
  44:	aa1303e0 	mov	x0, x19
  48:	94000000 	bl	0 <__debug>
  4c:	d2800402 	mov	x2, #0x20                  	// #32
  50:	90000001 	adrp	x1, 0 <fat32_init>
  54:	91000021 	add	x1, x1, #0x0
  58:	aa1303e0 	mov	x0, x19
  5c:	94000000 	bl	0 <__debug>
  60:	d2801700 	mov	x0, #0xb8                  	// #184
  64:	94000000 	bl	0 <malloc>
  68:	aa0003f5 	mov	x21, x0
  6c:	b4000880 	cbz	x0, 17c <fat32_init+0x17c>
  70:	f9400ae2 	ldr	x2, [x23, #16]
  74:	910103a1 	add	x1, x29, #0x40
  78:	52800000 	mov	w0, #0x0                   	// #0
  7c:	d63f0040 	blr	x2
  80:	7108001f 	cmp	w0, #0x200
  84:	540008c1 	b.ne	19c <fat32_init+0x19c>  // b.any
  88:	910103b6 	add	x22, x29, #0x40
  8c:	911103b3 	add	x19, x29, #0x440
  90:	d2800142 	mov	x2, #0xa                   	// #10
  94:	9107d3a1 	add	x1, x29, #0x1f4
  98:	aa1303e0 	mov	x0, x19
  9c:	94000000 	bl	0 <memcpy>
  a0:	d2800042 	mov	x2, #0x2                   	// #2
  a4:	910802c1 	add	x1, x22, #0x200
  a8:	9100f260 	add	x0, x19, #0x3c
  ac:	94000000 	bl	0 <memcpy>
  b0:	91004273 	add	x19, x19, #0x10
  b4:	91071ad4 	add	x20, x22, #0x1c6
  b8:	91081ad6 	add	x22, x22, #0x206
  bc:	d2800098 	mov	x24, #0x4                   	// #4
  c0:	385f8280 	ldurb	w0, [x20, #-8]
  c4:	381fc260 	sturb	w0, [x19, #-4]
  c8:	385fc280 	ldurb	w0, [x20, #-4]
  cc:	381fd260 	sturb	w0, [x19, #-3]
  d0:	aa1803e2 	mov	x2, x24
  d4:	aa1403e1 	mov	x1, x20
  d8:	aa1303e0 	mov	x0, x19
  dc:	94000000 	bl	0 <memcpy>
  e0:	aa1803e2 	mov	x2, x24
  e4:	91001281 	add	x1, x20, #0x4
  e8:	91001260 	add	x0, x19, #0x4
  ec:	94000000 	bl	0 <memcpy>
  f0:	91003273 	add	x19, x19, #0xc
  f4:	91004294 	add	x20, x20, #0x10
  f8:	eb16029f 	cmp	x20, x22
  fc:	54fffe21 	b.ne	c0 <fat32_init+0xc0>  // b.any
 100:	395137a0 	ldrb	w0, [x29, #1101]
 104:	51002c00 	sub	w0, w0, #0xb
 108:	12001c00 	and	w0, w0, #0xff
 10c:	7100041f 	cmp	w0, #0x1
 110:	540006c9 	b.ls	1e8 <fat32_init+0x1e8>  // b.plast
 114:	395167a0 	ldrb	w0, [x29, #1113]
 118:	51002c00 	sub	w0, w0, #0xb
 11c:	12001c00 	and	w0, w0, #0xff
 120:	7100041f 	cmp	w0, #0x1
 124:	540005a9 	b.ls	1d8 <fat32_init+0x1d8>  // b.plast
 128:	395197a0 	ldrb	w0, [x29, #1125]
 12c:	51002c00 	sub	w0, w0, #0xb
 130:	12001c00 	and	w0, w0, #0xff
 134:	7100041f 	cmp	w0, #0x1
 138:	54000549 	b.ls	1e0 <fat32_init+0x1e0>  // b.plast
 13c:	3951c7a0 	ldrb	w0, [x29, #1137]
 140:	51002c00 	sub	w0, w0, #0xb
 144:	12001c00 	and	w0, w0, #0xff
 148:	7100041f 	cmp	w0, #0x1
 14c:	54000429 	b.ls	1d0 <fat32_init+0x1d0>  // b.plast
 150:	90000003 	adrp	x3, 0 <fat32_init>
 154:	91000063 	add	x3, x3, #0x0
 158:	90000002 	adrp	x2, 0 <fat32_init>
 15c:	91000042 	add	x2, x2, #0x0
 160:	91008042 	add	x2, x2, #0x20
 164:	528005c1 	mov	w1, #0x2e                  	// #46
 168:	90000000 	adrp	x0, 0 <fat32_init>
 16c:	91000000 	add	x0, x0, #0x0
 170:	94000000 	bl	0 <__panic>
 174:	52800013 	mov	w19, #0x0                   	// #0
 178:	14000022 	b	200 <fat32_init+0x200>
 17c:	90000003 	adrp	x3, 0 <fat32_init>
 180:	91000063 	add	x3, x3, #0x0
 184:	aa1303e2 	mov	x2, x19
 188:	52800821 	mov	w1, #0x41                  	// #65
 18c:	90000000 	adrp	x0, 0 <fat32_init>
 190:	91000000 	add	x0, x0, #0x0
 194:	94000000 	bl	0 <__panic>
 198:	17ffffb6 	b	70 <fat32_init+0x70>
 19c:	90000000 	adrp	x0, 0 <_GLOBAL_OFFSET_TABLE_>
 1a0:	f9400000 	ldr	x0, [x0]
 1a4:	b9400004 	ldr	w4, [x0]
 1a8:	90000003 	adrp	x3, 0 <fat32_init>
 1ac:	91000063 	add	x3, x3, #0x0
 1b0:	90000002 	adrp	x2, 0 <fat32_init>
 1b4:	91000042 	add	x2, x2, #0x0
 1b8:	91004042 	add	x2, x2, #0x10
 1bc:	52800241 	mov	w1, #0x12                  	// #18
 1c0:	90000000 	adrp	x0, 0 <fat32_init>
 1c4:	91000000 	add	x0, x0, #0x0
 1c8:	94000000 	bl	0 <__panic>
 1cc:	17ffffaf 	b	88 <fat32_init+0x88>
 1d0:	52800060 	mov	w0, #0x3                   	// #3
 1d4:	14000006 	b	1ec <fat32_init+0x1ec>
 1d8:	52800020 	mov	w0, #0x1                   	// #1
 1dc:	14000004 	b	1ec <fat32_init+0x1ec>
 1e0:	52800040 	mov	w0, #0x2                   	// #2
 1e4:	14000002 	b	1ec <fat32_init+0x1ec>
 1e8:	52800000 	mov	w0, #0x0                   	// #0
 1ec:	93407c00 	sxtw	x0, w0
 1f0:	8b000400 	add	x0, x0, x0, lsl #1
 1f4:	911143a1 	add	x1, x29, #0x450
 1f8:	b8607833 	ldr	w19, [x1, x0, lsl #2]
 1fc:	34fffab3 	cbz	w19, 150 <fat32_init+0x150>
 200:	f9400ae2 	ldr	x2, [x23, #16]
 204:	910903a1 	add	x1, x29, #0x240
 208:	2a1303e0 	mov	w0, w19
 20c:	d63f0040 	blr	x2
 210:	7108001f 	cmp	w0, #0x200
 214:	540001c0 	b.eq	24c <fat32_init+0x24c>  // b.none
 218:	90000000 	adrp	x0, 0 <_GLOBAL_OFFSET_TABLE_>
 21c:	f9400000 	ldr	x0, [x0]
 220:	b9400005 	ldr	w5, [x0]
 224:	2a1303e4 	mov	w4, w19
 228:	90000003 	adrp	x3, 0 <fat32_init>
 22c:	91000063 	add	x3, x3, #0x0
 230:	90000002 	adrp	x2, 0 <fat32_init>
 234:	91000042 	add	x2, x2, #0x0
 238:	91008042 	add	x2, x2, #0x20
 23c:	52800621 	mov	w1, #0x31                  	// #49
 240:	90000000 	adrp	x0, 0 <fat32_init>
 244:	91000000 	add	x0, x0, #0x0
 248:	94000000 	bl	0 <__panic>
 24c:	395133a0 	ldrb	w0, [x29, #1100]
 250:	7102001f 	cmp	w0, #0x80
 254:	54000780 	b.eq	344 <fat32_init+0x344>  // b.none
 258:	395163a0 	ldrb	w0, [x29, #1112]
 25c:	7102001f 	cmp	w0, #0x80
 260:	54000760 	b.eq	34c <fat32_init+0x34c>  // b.none
 264:	395193a0 	ldrb	w0, [x29, #1124]
 268:	7102001f 	cmp	w0, #0x80
 26c:	54000740 	b.eq	354 <fat32_init+0x354>  // b.none
 270:	3951c3a0 	ldrb	w0, [x29, #1136]
 274:	7102001f 	cmp	w0, #0x80
 278:	54000720 	b.eq	35c <fat32_init+0x35c>  // b.none
 27c:	90000003 	adrp	x3, 0 <fat32_init>
 280:	91000063 	add	x3, x3, #0x0
 284:	90000002 	adrp	x2, 0 <fat32_init>
 288:	91000042 	add	x2, x2, #0x0
 28c:	528009a1 	mov	w1, #0x4d                  	// #77
 290:	90000000 	adrp	x0, 0 <fat32_init>
 294:	91000000 	add	x0, x0, #0x0
 298:	94000000 	bl	0 <__panic>
 29c:	12800000 	mov	w0, #0xffffffff            	// #-1
 2a0:	93407c00 	sxtw	x0, w0
 2a4:	8b000400 	add	x0, x0, x0, lsl #1
 2a8:	79449fa1 	ldrh	w1, [x29, #590]
 2ac:	911143a2 	add	x2, x29, #0x450
 2b0:	b8607840 	ldr	w0, [x2, x0, lsl #2]
 2b4:	0b010000 	add	w0, w0, w1
 2b8:	b900aaa0 	str	w0, [x21, #168]
 2bc:	910282a0 	add	x0, x21, #0xa0
 2c0:	d2800042 	mov	x2, #0x2                   	// #2
 2c4:	91092fa1 	add	x1, x29, #0x24b
 2c8:	aa0003f3 	mov	x19, x0
 2cc:	94000000 	bl	0 <memcpy>
 2d0:	394937a0 	ldrb	w0, [x29, #589]
 2d4:	39028aa0 	strb	w0, [x21, #162]
 2d8:	b9426fa0 	ldr	w0, [x29, #620]
 2dc:	b900b2a0 	str	w0, [x21, #176]
 2e0:	b94267a1 	ldr	w1, [x29, #612]
 2e4:	b900a6a1 	str	w1, [x21, #164]
 2e8:	b940aaa2 	ldr	w2, [x21, #168]
 2ec:	394943a0 	ldrb	w0, [x29, #592]
 2f0:	1b010800 	madd	w0, w0, w1, w2
 2f4:	b900aea0 	str	w0, [x21, #172]
 2f8:	a94006e0 	ldp	x0, x1, [x23]
 2fc:	a90086a0 	stp	x0, x1, [x21, #8]
 300:	f9400ae0 	ldr	x0, [x23, #16]
 304:	f9000ea0 	str	x0, [x21, #24]
 308:	794142a0 	ldrh	w0, [x21, #160]
 30c:	b90006a0 	str	w0, [x21, #4]
 310:	aa1503e1 	mov	x1, x21
 314:	b8020422 	str	w2, [x1], #32
 318:	aa1303e0 	mov	x0, x19
 31c:	f800843f 	str	xzr, [x1], #8
 320:	eb01001f 	cmp	x0, x1
 324:	54ffffc1 	b.ne	31c <fat32_init+0x31c>  // b.any
 328:	aa1503e0 	mov	x0, x21
 32c:	a94153f3 	ldp	x19, x20, [sp, #16]
 330:	a9425bf5 	ldp	x21, x22, [sp, #32]
 334:	a94363f7 	ldp	x23, x24, [sp, #48]
 338:	a9407bfd 	ldp	x29, x30, [sp]
 33c:	911203ff 	add	sp, sp, #0x480
 340:	d65f03c0 	ret
 344:	52800000 	mov	w0, #0x0                   	// #0
 348:	17ffffd6 	b	2a0 <fat32_init+0x2a0>
 34c:	52800020 	mov	w0, #0x1                   	// #1
 350:	17ffffd4 	b	2a0 <fat32_init+0x2a0>
 354:	52800040 	mov	w0, #0x2                   	// #2
 358:	17ffffd2 	b	2a0 <fat32_init+0x2a0>
 35c:	52800060 	mov	w0, #0x3                   	// #3
 360:	17ffffd0 	b	2a0 <fat32_init+0x2a0>

0000000000000364 <fat32_read_cluster>:
 364:	a9bb7bfd 	stp	x29, x30, [sp, #-80]!
 368:	910003fd 	mov	x29, sp
 36c:	f90017f6 	str	x22, [sp, #40]
 370:	f90027fa 	str	x26, [sp, #72]
 374:	39428803 	ldrb	w3, [x0, #162]
 378:	7941401a 	ldrh	w26, [x0, #160]
 37c:	34000443 	cbz	w3, 404 <fat32_read_cluster+0xa0>
 380:	a90153b3 	stp	x19, x20, [x29, #16]
 384:	f90013b5 	str	x21, [x29, #32]
 388:	a90363b7 	stp	x23, x24, [x29, #48]
 38c:	f90023b9 	str	x25, [x29, #64]
 390:	2a0303f9 	mov	w25, w3
 394:	aa0203f8 	mov	x24, x2
 398:	aa0003f5 	mov	x21, x0
 39c:	d1000837 	sub	x23, x1, #0x2
 3a0:	92401c63 	and	x3, x3, #0xff
 3a4:	9b037ef7 	mul	x23, x23, x3
 3a8:	52800014 	mov	w20, #0x0                   	// #0
 3ac:	d2800013 	mov	x19, #0x0                   	// #0
 3b0:	d2800016 	mov	x22, #0x0                   	// #0
 3b4:	b940aea1 	ldr	w1, [x21, #172]
 3b8:	8b170021 	add	x1, x1, x23
 3bc:	8b344302 	add	x2, x24, w20, uxtw
 3c0:	8b130021 	add	x1, x1, x19
 3c4:	aa1503e0 	mov	x0, x21
 3c8:	94000000 	bl	0 <cd_read_sector>
 3cc:	8b0002d6 	add	x22, x22, x0
 3d0:	91000673 	add	x19, x19, #0x1
 3d4:	0b1a0294 	add	w20, w20, w26
 3d8:	6b13033f 	cmp	w25, w19
 3dc:	54fffec8 	b.hi	3b4 <fat32_read_cluster+0x50>  // b.pmore
 3e0:	a94153b3 	ldp	x19, x20, [x29, #16]
 3e4:	f94013b5 	ldr	x21, [x29, #32]
 3e8:	a94363b7 	ldp	x23, x24, [x29, #48]
 3ec:	f94023b9 	ldr	x25, [x29, #64]
 3f0:	aa1603e0 	mov	x0, x22
 3f4:	f94017f6 	ldr	x22, [sp, #40]
 3f8:	f94027fa 	ldr	x26, [sp, #72]
 3fc:	a8c57bfd 	ldp	x29, x30, [sp], #80
 400:	d65f03c0 	ret
 404:	d2800016 	mov	x22, #0x0                   	// #0
 408:	17fffffa 	b	3f0 <fat32_read_cluster+0x8c>

000000000000040c <fat32_read_chain>:
 40c:	a9b77bfd 	stp	x29, x30, [sp, #-144]!
 410:	910003fd 	mov	x29, sp
 414:	a90153f3 	stp	x19, x20, [sp, #16]
 418:	f90013f5 	str	x21, [sp, #32]
 41c:	a90363f7 	stp	x23, x24, [sp, #48]
 420:	f90027fa 	str	x26, [sp, #72]
 424:	f9002ffc 	str	x28, [sp, #88]
 428:	aa0003f4 	mov	x20, x0
 42c:	aa0103f8 	mov	x24, x1
 430:	aa0203f7 	mov	x23, x2
 434:	b940a813 	ldr	w19, [x0, #168]
 438:	7941401a 	ldrh	w26, [x0, #160]
 43c:	3942881c 	ldrb	w28, [x0, #162]
 440:	92403f40 	and	x0, x26, #0xffff
 444:	94000000 	bl	0 <malloc>
 448:	d2800015 	mov	x21, #0x0                   	// #0
 44c:	b4000380 	cbz	x0, 4bc <fat32_read_chain+0xb0>
 450:	f90017b6 	str	x22, [x29, #40]
 454:	f90023b9 	str	x25, [x29, #64]
 458:	f9002bbb 	str	x27, [x29, #80]
 45c:	aa0003f6 	mov	x22, x0
 460:	f9003fb4 	str	x20, [x29, #120]
 464:	2a1303e0 	mov	w0, w19
 468:	f9003ba0 	str	x0, [x29, #112]
 46c:	2a1a03f9 	mov	w25, w26
 470:	b9008fb8 	str	w24, [x29, #140]
 474:	1ada0b1b 	udiv	w27, w24, w26
 478:	8b3b4013 	add	x19, x0, w27, uxtw
 47c:	aa1603e2 	mov	x2, x22
 480:	aa1303e1 	mov	x1, x19
 484:	aa1403e0 	mov	x0, x20
 488:	94000000 	bl	0 <cd_read_sector>
 48c:	b4000280 	cbz	x0, 4dc <fat32_read_chain+0xd0>
 490:	1ada0b00 	udiv	w0, w24, w26
 494:	1b1ae000 	msub	w0, w0, w26, w24
 498:	b8607ad3 	ldr	w19, [x22, x0, lsl #2]
 49c:	d2800015 	mov	x21, #0x0                   	// #0
 4a0:	72006e73 	ands	w19, w19, #0xfffffff
 4a4:	54000321 	b.ne	508 <fat32_read_chain+0xfc>  // b.any
 4a8:	aa1603e0 	mov	x0, x22
 4ac:	94000000 	bl	0 <free>
 4b0:	f94017b6 	ldr	x22, [x29, #40]
 4b4:	f94023b9 	ldr	x25, [x29, #64]
 4b8:	f9402bbb 	ldr	x27, [x29, #80]
 4bc:	aa1503e0 	mov	x0, x21
 4c0:	a94153f3 	ldp	x19, x20, [sp, #16]
 4c4:	f94013f5 	ldr	x21, [sp, #32]
 4c8:	a94363f7 	ldp	x23, x24, [sp, #48]
 4cc:	f94027fa 	ldr	x26, [sp, #72]
 4d0:	f9402ffc 	ldr	x28, [sp, #88]
 4d4:	a8c97bfd 	ldp	x29, x30, [sp], #144
 4d8:	d65f03c0 	ret
 4dc:	aa1303e4 	mov	x4, x19
 4e0:	90000003 	adrp	x3, 0 <fat32_init>
 4e4:	91000063 	add	x3, x3, #0x0
 4e8:	90000002 	adrp	x2, 0 <fat32_init>
 4ec:	91000042 	add	x2, x2, #0x0
 4f0:	9100c042 	add	x2, x2, #0x30
 4f4:	52801381 	mov	w1, #0x9c                  	// #156
 4f8:	90000000 	adrp	x0, 0 <fat32_init>
 4fc:	91000000 	add	x0, x0, #0x0
 500:	94000000 	bl	0 <__panic>
 504:	17ffffe3 	b	490 <fat32_read_chain+0x84>
 508:	1b1a7f9a 	mul	w26, w28, w26
 50c:	2a1a03e0 	mov	w0, w26
 510:	f90043a0 	str	x0, [x29, #128]
 514:	94000000 	bl	0 <malloc>
 518:	f90002e0 	str	x0, [x23]
 51c:	b4fffc60 	cbz	x0, 4a8 <fat32_read_chain+0x9c>
 520:	90000000 	adrp	x0, 0 <fat32_init>
 524:	f90037a0 	str	x0, [x29, #104]
 528:	90000000 	adrp	x0, 0 <fat32_init>
 52c:	91000000 	add	x0, x0, #0x0
 530:	9100c000 	add	x0, x0, #0x30
 534:	f90033a0 	str	x0, [x29, #96]
 538:	1400000d 	b	56c <fat32_read_chain+0x160>
 53c:	1ad90a60 	udiv	w0, w19, w25
 540:	1b19cc00 	msub	w0, w0, w25, w19
 544:	b8607ada 	ldr	w26, [x22, x0, lsl #2]
 548:	12006f5a 	and	w26, w26, #0xfffffff
 54c:	f94043a0 	ldr	x0, [x29, #128]
 550:	8b150001 	add	x1, x0, x21
 554:	f94002e0 	ldr	x0, [x23]
 558:	94000000 	bl	0 <realloc>
 55c:	f90002e0 	str	x0, [x23]
 560:	b9008fb3 	str	w19, [x29, #140]
 564:	b4000577 	cbz	x23, 610 <fat32_read_chain+0x204>
 568:	2a1a03f3 	mov	w19, w26
 56c:	f94002e2 	ldr	x2, [x23]
 570:	8b150042 	add	x2, x2, x21
 574:	b9408fa1 	ldr	w1, [x29, #140]
 578:	aa1403e0 	mov	x0, x20
 57c:	94000000 	bl	364 <fat32_read_cluster>
 580:	8b0002b5 	add	x21, x21, x0
 584:	51000a60 	sub	w0, w19, #0x2
 588:	529ffda1 	mov	w1, #0xffed                	// #65517
 58c:	72a1ffe1 	movk	w1, #0xfff, lsl #16
 590:	6b01001f 	cmp	w0, w1
 594:	540002c8 	b.hi	5ec <fat32_read_chain+0x1e0>  // b.pmore
 598:	1ad90a7a 	udiv	w26, w19, w25
 59c:	6b1b035f 	cmp	w26, w27
 5a0:	54fffce0 	b.eq	53c <fat32_read_chain+0x130>  // b.none
 5a4:	2a1a03fc 	mov	w28, w26
 5a8:	f9403ba0 	ldr	x0, [x29, #112]
 5ac:	8b00039c 	add	x28, x28, x0
 5b0:	aa1603e2 	mov	x2, x22
 5b4:	aa1c03e1 	mov	x1, x28
 5b8:	f9403fa0 	ldr	x0, [x29, #120]
 5bc:	94000000 	bl	0 <cd_read_sector>
 5c0:	2a1a03fb 	mov	w27, w26
 5c4:	b5fffbc0 	cbnz	x0, 53c <fat32_read_chain+0x130>
 5c8:	aa1c03e4 	mov	x4, x28
 5cc:	f94037a0 	ldr	x0, [x29, #104]
 5d0:	91000003 	add	x3, x0, #0x0
 5d4:	f94033a2 	ldr	x2, [x29, #96]
 5d8:	52801801 	mov	w1, #0xc0                  	// #192
 5dc:	90000000 	adrp	x0, 0 <fat32_init>
 5e0:	91000000 	add	x0, x0, #0x0
 5e4:	94000000 	bl	0 <__panic>
 5e8:	17ffffd5 	b	53c <fat32_read_chain+0x130>
 5ec:	aa1803e3 	mov	x3, x24
 5f0:	aa1503e2 	mov	x2, x21
 5f4:	90000001 	adrp	x1, 0 <fat32_init>
 5f8:	91000021 	add	x1, x1, #0x0
 5fc:	90000000 	adrp	x0, 0 <fat32_init>
 600:	91000000 	add	x0, x0, #0x0
 604:	9100c000 	add	x0, x0, #0x30
 608:	94000000 	bl	0 <__debug>
 60c:	17ffffa7 	b	4a8 <fat32_read_chain+0x9c>
 610:	d2800015 	mov	x21, #0x0                   	// #0
 614:	17ffffa5 	b	4a8 <fat32_read_chain+0x9c>

0000000000000618 <fat32_parse_name>:
 618:	a9b97bfd 	stp	x29, x30, [sp, #-112]!
 61c:	910003fd 	mov	x29, sp
 620:	f9000ff4 	str	x20, [sp, #24]
 624:	a902dff6 	stp	x22, x23, [sp, #40]
 628:	aa0003f4 	mov	x20, x0
 62c:	aa0103f7 	mov	x23, x1
 630:	39402c00 	ldrb	w0, [x0, #11]
 634:	71003c1f 	cmp	w0, #0xf
 638:	54000620 	b.eq	6fc <fat32_parse_name+0xe4>  // b.none
 63c:	39400280 	ldrb	w0, [x20]
 640:	7103941f 	cmp	w0, #0xe5
 644:	54000c80 	b.eq	7d4 <fat32_parse_name+0x1bc>  // b.none
 648:	f9000bb3 	str	x19, [x29, #16]
 64c:	f90013b5 	str	x21, [x29, #32]
 650:	34000c80 	cbz	w0, 7e0 <fat32_parse_name+0x1c8>
 654:	d2800020 	mov	x0, #0x1                   	// #1
 658:	2a0003f3 	mov	w19, w0
 65c:	38606a81 	ldrb	w1, [x20, x0]
 660:	340000a1 	cbz	w1, 674 <fat32_parse_name+0x5c>
 664:	11000413 	add	w19, w0, #0x1
 668:	91000400 	add	x0, x0, #0x1
 66c:	f100201f 	cmp	x0, #0x8
 670:	54ffff41 	b.ne	658 <fat32_parse_name+0x40>  // b.any
 674:	93407e75 	sxtw	x21, w19
 678:	aa1503e2 	mov	x2, x21
 67c:	aa1403e1 	mov	x1, x20
 680:	aa1703e0 	mov	x0, x23
 684:	94000000 	bl	0 <strncpy>
 688:	39402280 	ldrb	w0, [x20, #8]
 68c:	34000b60 	cbz	w0, 7f8 <fat32_parse_name+0x1e0>
 690:	528005c0 	mov	w0, #0x2e                  	// #46
 694:	3833cae0 	strb	w0, [x23, w19, sxtw]
 698:	39400280 	ldrb	w0, [x20]
 69c:	34000aa0 	cbz	w0, 7f0 <fat32_parse_name+0x1d8>
 6a0:	39400680 	ldrb	w0, [x20, #1]
 6a4:	34000a20 	cbz	w0, 7e8 <fat32_parse_name+0x1d0>
 6a8:	39400a80 	ldrb	w0, [x20, #2]
 6ac:	7100001f 	cmp	w0, #0x0
 6b0:	1a9f07f6 	cset	w22, ne  // ne = any
 6b4:	11000ad6 	add	w22, w22, #0x2
 6b8:	910006b5 	add	x21, x21, #0x1
 6bc:	8b1502f5 	add	x21, x23, x21
 6c0:	d2800062 	mov	x2, #0x3                   	// #3
 6c4:	91002281 	add	x1, x20, #0x8
 6c8:	9101a3a0 	add	x0, x29, #0x68
 6cc:	94000000 	bl	0 <utf16ntoascii>
 6d0:	93407ec2 	sxtw	x2, w22
 6d4:	aa0003e1 	mov	x1, x0
 6d8:	aa1503e0 	mov	x0, x21
 6dc:	94000000 	bl	0 <strncpy>
 6e0:	11000673 	add	w19, w19, #0x1
 6e4:	0b160276 	add	w22, w19, w22
 6e8:	3836caff 	strb	wzr, [x23, w22, sxtw]
 6ec:	d2800016 	mov	x22, #0x0                   	// #0
 6f0:	f9400bb3 	ldr	x19, [x29, #16]
 6f4:	f94013b5 	ldr	x21, [x29, #32]
 6f8:	14000032 	b	7c0 <fat32_parse_name+0x1a8>
 6fc:	f9000bb3 	str	x19, [x29, #16]
 700:	f90013b5 	str	x21, [x29, #32]
 704:	a903e7b8 	stp	x24, x25, [x29, #56]
 708:	a904efba 	stp	x26, x27, [x29, #72]
 70c:	91000694 	add	x20, x20, #0x1
 710:	d2800016 	mov	x22, #0x0                   	// #0
 714:	528001bb 	mov	w27, #0xd                   	// #13
 718:	9101a3b5 	add	x21, x29, #0x68
 71c:	d280015a 	mov	x26, #0xa                   	// #10
 720:	d28000b9 	mov	x25, #0x5                   	// #5
 724:	d2800198 	mov	x24, #0xc                   	// #12
 728:	385ff293 	ldurb	w19, [x20, #-1]
 72c:	12001273 	and	w19, w19, #0x1f
 730:	51000673 	sub	w19, w19, #0x1
 734:	1b1b7e73 	mul	w19, w19, w27
 738:	8b33c2f3 	add	x19, x23, w19, sxtw
 73c:	aa1a03e2 	mov	x2, x26
 740:	aa1403e1 	mov	x1, x20
 744:	aa1503e0 	mov	x0, x21
 748:	94000000 	bl	0 <utf16ntoascii>
 74c:	aa1903e2 	mov	x2, x25
 750:	aa0003e1 	mov	x1, x0
 754:	aa1303e0 	mov	x0, x19
 758:	94000000 	bl	0 <strncpy>
 75c:	aa1803e2 	mov	x2, x24
 760:	91003681 	add	x1, x20, #0xd
 764:	aa1503e0 	mov	x0, x21
 768:	94000000 	bl	0 <utf16ntoascii>
 76c:	d28000c2 	mov	x2, #0x6                   	// #6
 770:	aa0003e1 	mov	x1, x0
 774:	91001660 	add	x0, x19, #0x5
 778:	94000000 	bl	0 <strncpy>
 77c:	d2800082 	mov	x2, #0x4                   	// #4
 780:	91006e81 	add	x1, x20, #0x1b
 784:	aa1503e0 	mov	x0, x21
 788:	94000000 	bl	0 <utf16ntoascii>
 78c:	d2800042 	mov	x2, #0x2                   	// #2
 790:	aa0003e1 	mov	x1, x0
 794:	91002e60 	add	x0, x19, #0xb
 798:	94000000 	bl	0 <strncpy>
 79c:	910006d6 	add	x22, x22, #0x1
 7a0:	91008294 	add	x20, x20, #0x20
 7a4:	39402a80 	ldrb	w0, [x20, #10]
 7a8:	71003c1f 	cmp	w0, #0xf
 7ac:	54fffbe0 	b.eq	728 <fat32_parse_name+0x110>  // b.none
 7b0:	f9400bb3 	ldr	x19, [x29, #16]
 7b4:	f94013b5 	ldr	x21, [x29, #32]
 7b8:	a943e7b8 	ldp	x24, x25, [x29, #56]
 7bc:	a944efba 	ldp	x26, x27, [x29, #72]
 7c0:	aa1603e0 	mov	x0, x22
 7c4:	f9400ff4 	ldr	x20, [sp, #24]
 7c8:	a942dff6 	ldp	x22, x23, [sp, #40]
 7cc:	a8c77bfd 	ldp	x29, x30, [sp], #112
 7d0:	d65f03c0 	ret
 7d4:	3900003f 	strb	wzr, [x1]
 7d8:	d2800016 	mov	x22, #0x0                   	// #0
 7dc:	17fffff9 	b	7c0 <fat32_parse_name+0x1a8>
 7e0:	52800013 	mov	w19, #0x0                   	// #0
 7e4:	17ffffa4 	b	674 <fat32_parse_name+0x5c>
 7e8:	52800036 	mov	w22, #0x1                   	// #1
 7ec:	17ffffb3 	b	6b8 <fat32_parse_name+0xa0>
 7f0:	52800016 	mov	w22, #0x0                   	// #0
 7f4:	17ffffb1 	b	6b8 <fat32_parse_name+0xa0>
 7f8:	3833caff 	strb	wzr, [x23, w19, sxtw]
 7fc:	d2800016 	mov	x22, #0x0                   	// #0
 800:	f9400bb3 	ldr	x19, [x29, #16]
 804:	f94013b5 	ldr	x21, [x29, #32]
 808:	17ffffee 	b	7c0 <fat32_parse_name+0x1a8>

000000000000080c <fat32_find_entry>:
 80c:	d10943ff 	sub	sp, sp, #0x250
 810:	a9007bfd 	stp	x29, x30, [sp]
 814:	910003fd 	mov	x29, sp
 818:	f9000bf3 	str	x19, [sp, #16]
 81c:	f9001ff8 	str	x24, [sp, #56]
 820:	aa0003f8 	mov	x24, x0
 824:	b4000662 	cbz	x2, 8f0 <fat32_find_entry+0xe4>
 828:	a901d7b4 	stp	x20, x21, [x29, #24]
 82c:	a902dfb6 	stp	x22, x23, [x29, #40]
 830:	a9046bb9 	stp	x25, x26, [x29, #64]
 834:	aa0103f7 	mov	x23, x1
 838:	aa0203f6 	mov	x22, x2
 83c:	d2800014 	mov	x20, #0x0                   	// #0
 840:	910143b5 	add	x21, x29, #0x50
 844:	9000001a 	adrp	x26, 0 <fat32_init>
 848:	90000019 	adrp	x25, 0 <fat32_init>
 84c:	91000339 	add	x25, x25, #0x0
 850:	91012339 	add	x25, x25, #0x48
 854:	1400000d 	b	888 <fat32_find_entry+0x7c>
 858:	aa1503e2 	mov	x2, x21
 85c:	91000341 	add	x1, x26, #0x0
 860:	aa1903e0 	mov	x0, x25
 864:	94000000 	bl	0 <__debug>
 868:	aa1503e1 	mov	x1, x21
 86c:	aa1803e0 	mov	x0, x24
 870:	94000000 	bl	0 <strcmp>
 874:	340001c0 	cbz	w0, 8ac <fat32_find_entry+0xa0>
 878:	8b140273 	add	x19, x19, x20
 87c:	91000674 	add	x20, x19, #0x1
 880:	eb16029f 	cmp	x20, x22
 884:	54000302 	b.cs	8e4 <fat32_find_entry+0xd8>  // b.hs, b.nlast
 888:	aa1503e1 	mov	x1, x21
 88c:	8b1416e0 	add	x0, x23, x20, lsl #5
 890:	94000000 	bl	618 <fat32_parse_name>
 894:	aa0003f3 	mov	x19, x0
 898:	394143a0 	ldrb	w0, [x29, #80]
 89c:	35fffde0 	cbnz	w0, 858 <fat32_find_entry+0x4c>
 8a0:	8b140273 	add	x19, x19, x20
 8a4:	91000674 	add	x20, x19, #0x1
 8a8:	17fffff6 	b	880 <fat32_find_entry+0x74>
 8ac:	8b140273 	add	x19, x19, x20
 8b0:	8b1316f3 	add	x19, x23, x19, lsl #5
 8b4:	aa1303e3 	mov	x3, x19
 8b8:	aa1803e2 	mov	x2, x24
 8bc:	90000001 	adrp	x1, 0 <fat32_init>
 8c0:	91000021 	add	x1, x1, #0x0
 8c4:	90000000 	adrp	x0, 0 <fat32_init>
 8c8:	91000000 	add	x0, x0, #0x0
 8cc:	91012000 	add	x0, x0, #0x48
 8d0:	94000000 	bl	0 <__debug>
 8d4:	a941d7b4 	ldp	x20, x21, [x29, #24]
 8d8:	a942dfb6 	ldp	x22, x23, [x29, #40]
 8dc:	a9446bb9 	ldp	x25, x26, [x29, #64]
 8e0:	1400000c 	b	910 <fat32_find_entry+0x104>
 8e4:	a941d7b4 	ldp	x20, x21, [x29, #24]
 8e8:	a942dfb6 	ldp	x22, x23, [x29, #40]
 8ec:	a9446bb9 	ldp	x25, x26, [x29, #64]
 8f0:	aa1803e2 	mov	x2, x24
 8f4:	90000001 	adrp	x1, 0 <fat32_init>
 8f8:	91000021 	add	x1, x1, #0x0
 8fc:	90000000 	adrp	x0, 0 <fat32_init>
 900:	91000000 	add	x0, x0, #0x0
 904:	91012000 	add	x0, x0, #0x48
 908:	94000000 	bl	0 <__debug>
 90c:	d2800013 	mov	x19, #0x0                   	// #0
 910:	aa1303e0 	mov	x0, x19
 914:	f9400bf3 	ldr	x19, [sp, #16]
 918:	f9401ff8 	ldr	x24, [sp, #56]
 91c:	a9407bfd 	ldp	x29, x30, [sp]
 920:	910943ff 	add	sp, sp, #0x250
 924:	d65f03c0 	ret

 
 
 
 
 
 
 
 
 
 
 
 
 
 
 
 
 
 
 
 
 
 
 
 
 
 
 
 
 
 
 
 
 
 
0000000000000928 <fat32_open>:
 928:	a9b87bfd 	stp	x29, x30, [sp, #-128]!
 92c:	910003fd 	mov	x29, sp
 930:	f9000bf3 	str	x19, [sp, #16]
 934:	f90017f6 	str	x22, [sp, #40]
 938:	f9001ff8 	str	x24, [sp, #56]
 93c:	aa0003f6 	mov	x22, x0
 940:	aa0103f3 	mov	x19, x1
 944:	f9003fbf 	str	xzr, [x29, #120]
 948:	d2800402 	mov	x2, #0x20                  	// #32
 94c:	52800001 	mov	w1, #0x0                   	// #0
 950:	910163a0 	add	x0, x29, #0x58
 954:	94000000 	bl	0 <memset>
 958:	b4000353 	cbz	x19, 9c0 <fat32_open+0x98>
 95c:	aa1303e0 	mov	x0, x19
 960:	94000000 	bl	0 <strlen>
 964:	91000400 	add	x0, x0, #0x1
 968:	94000000 	bl	0 <malloc>
 96c:	aa0003f8 	mov	x24, x0
 970:	b40003c0 	cbz	x0, 9e8 <fat32_open+0xc0>
 974:	aa1303e1 	mov	x1, x19
 978:	aa1803e0 	mov	x0, x24
 97c:	94000000 	bl	0 <strcpy>
 980:	90000001 	adrp	x1, 0 <fat32_init>
 984:	91000021 	add	x1, x1, #0x0
 988:	aa1803e0 	mov	x0, x24
 98c:	94000000 	bl	0 <strtok>
 990:	aa0003f3 	mov	x19, x0
 994:	b4000ee0 	cbz	x0, b70 <fat32_open+0x248>
 998:	a901d7b4 	stp	x20, x21, [x29, #24]
 99c:	f9001bb7 	str	x23, [x29, #48]
 9a0:	f90023b9 	str	x25, [x29, #64]
 9a4:	52800021 	mov	w1, #0x1                   	// #1
 9a8:	9101e3b7 	add	x23, x29, #0x78
 9ac:	90000019 	adrp	x25, 0 <fat32_init>
 9b0:	90000015 	adrp	x21, 0 <fat32_init>
 9b4:	910002b5 	add	x21, x21, #0x0
 9b8:	910182b5 	add	x21, x21, #0x60
 9bc:	1400002f 	b	a78 <fat32_open+0x150>
 9c0:	90000003 	adrp	x3, 0 <fat32_init>
 9c4:	91000063 	add	x3, x3, #0x0
 9c8:	90000002 	adrp	x2, 0 <fat32_init>
 9cc:	91000042 	add	x2, x2, #0x0
 9d0:	91018042 	add	x2, x2, #0x60
 9d4:	52802881 	mov	w1, #0x144                 	// #324
 9d8:	90000000 	adrp	x0, 0 <fat32_init>
 9dc:	91000000 	add	x0, x0, #0x0
 9e0:	94000000 	bl	0 <__panic>
 9e4:	17ffffde 	b	95c <fat32_open+0x34>
 9e8:	90000003 	adrp	x3, 0 <fat32_init>
 9ec:	91000063 	add	x3, x3, #0x0
 9f0:	90000002 	adrp	x2, 0 <fat32_init>
 9f4:	91000042 	add	x2, x2, #0x0
 9f8:	91018042 	add	x2, x2, #0x60
 9fc:	52802941 	mov	w1, #0x14a                 	// #330
 a00:	90000000 	adrp	x0, 0 <fat32_init>
 a04:	91000000 	add	x0, x0, #0x0
 a08:	94000000 	bl	0 <__panic>
 a0c:	17ffffda 	b	974 <fat32_open+0x4c>
 a10:	aa1703e2 	mov	x2, x23
 a14:	b940b2c1 	ldr	w1, [x22, #176]
 a18:	aa1603e0 	mov	x0, x22
 a1c:	94000000 	bl	40c <fat32_read_chain>
 a20:	d345fc14 	lsr	x20, x0, #5
 a24:	91000321 	add	x1, x25, #0x0
 a28:	aa1503e0 	mov	x0, x21
 a2c:	94000000 	bl	0 <__debug>
 a30:	aa1303e2 	mov	x2, x19
 a34:	90000001 	adrp	x1, 0 <fat32_init>
 a38:	91000021 	add	x1, x1, #0x0
 a3c:	aa1503e0 	mov	x0, x21
 a40:	94000000 	bl	0 <__debug>
 a44:	aa1403e2 	mov	x2, x20
 a48:	f9403fa1 	ldr	x1, [x29, #120]
 a4c:	aa1303e0 	mov	x0, x19
 
 
 
 
 
 a50:	94000000 	bl	80c <fat32_find_entry>
 a54:	aa0003f4 	mov	x20, x0
 a58:	b40006e0 	cbz	x0, b34 <fat32_open+0x20c>
 a5c:	90000001 	adrp	x1, 0 <fat32_init>
 a60:	91000021 	add	x1, x1, #0x0
 a64:	d2800000 	mov	x0, #0x0                   	// #0
 a68:	94000000 	bl	0 <strtok>
 a6c:	aa0003f3 	mov	x19, x0
 a70:	52800001 	mov	w1, #0x0                   	// #0
 a74:	b4000900 	cbz	x0, b94 <fat32_open+0x26c>
 a78:	35fffcc1 	cbnz	w1, a10 <fat32_open+0xe8>
 a7c:	39402e80 	ldrb	w0, [x20, #11]
 a80:	36200500 	tbz	w0, #4, b20 <fat32_open+0x1f8>
 a84:	a9400680 	ldp	x0, x1, [x20]
 a88:	a90587a0 	stp	x0, x1, [x29, #88]
 a8c:	a9410680 	ldp	x0, x1, [x20, #16]
 a90:	a90687a0 	stp	x0, x1, [x29, #104]
 a94:	f9403fa0 	ldr	x0, [x29, #120]
 a98:	94000000 	bl	0 <free>
 a9c:	7940dba1 	ldrh	w1, [x29, #108]
 aa0:	7940e7a0 	ldrh	w0, [x29, #114]
 aa4:	aa1703e2 	mov	x2, x23
 aa8:	0b014001 	add	w1, w0, w1, lsl #16
 aac:	aa1603e0 	mov	x0, x22
 ab0:	94000000 	bl	40c <fat32_read_chain>
 ab4:	d345fc14 	lsr	x20, x0, #5
 ab8:	17ffffde 	b	a30 <fat32_open+0x108>
 abc:	7940dba0 	ldrh	w0, [x29, #108]
 ac0:	7940e7a1 	ldrh	w1, [x29, #114]
 ac4:	0b004020 	add	w0, w1, w0, lsl #16
 ac8:	b9000260 	str	w0, [x19]
 acc:	39418fa0 	ldrb	w0, [x29, #99]
 ad0:	39004260 	strb	w0, [x19, #16]
 ad4:	f9000676 	str	x22, [x19, #8]
 ad8:	394197a0 	ldrb	w0, [x29, #101]
 adc:	39004660 	strb	w0, [x19, #17]
 ae0:	7940cfa0 	ldrh	w0, [x29, #102]
 ae4:	79002660 	strh	w0, [x19, #18]
 ae8:	7940d3a0 	ldrh	w0, [x29, #104]
 aec:	79002a60 	strh	w0, [x19, #20]
 af0:	7940d7a0 	ldrh	w0, [x29, #106]
 af4:	79002e60 	strh	w0, [x19, #22]
 af8:	7940dfa0 	ldrh	w0, [x29, #110]
 afc:	79003260 	strh	w0, [x19, #24]
 b00:	7940e3a0 	ldrh	w0, [x29, #112]
 b04:	79003660 	strh	w0, [x19, #26]
 b08:	b94077a0 	ldr	w0, [x29, #116]
 b0c:	b9001e60 	str	w0, [x19, #28]
 b10:	a941d7b4 	ldp	x20, x21, [x29, #24]
 b14:	f9401bb7 	ldr	x23, [x29, #48]
 b18:	f94023b9 	ldr	x25, [x29, #64]
 b1c:	1400000a 	b	b44 <fat32_open+0x21c>
 b20:	d2800013 	mov	x19, #0x0                   	// #0
 b24:	a941d7b4 	ldp	x20, x21, [x29, #24]
 b28:	f9401bb7 	ldr	x23, [x29, #48]
 b2c:	f94023b9 	ldr	x25, [x29, #64]
 b30:	14000005 	b	b44 <fat32_open+0x21c>
 b34:	d2800013 	mov	x19, #0x0                   	// #0
 b38:	a941d7b4 	ldp	x20, x21, [x29, #24]
 b3c:	f9401bb7 	ldr	x23, [x29, #48]
 b40:	f94023b9 	ldr	x25, [x29, #64]
 b44:	aa1803e0 	mov	x0, x24
 b48:	94000000 	bl	0 <free>
 b4c:	f9403fa0 	ldr	x0, [x29, #120]
 b50:	b4000040 	cbz	x0, b58 <fat32_open+0x230>
 b54:	94000000 	bl	0 <free>
 b58:	aa1303e0 	mov	x0, x19
 b5c:	f9400bf3 	ldr	x19, [sp, #16]
 b60:	f94017f6 	ldr	x22, [sp, #40]
 b64:	f9401ff8 	ldr	x24, [sp, #56]
 b68:	a8c87bfd 	ldp	x29, x30, [sp], #128
 b6c:	d65f03c0 	ret
 b70:	d2800400 	mov	x0, #0x20                  	// #32
 b74:	94000000 	bl	0 <malloc>
 b78:	aa0003f3 	mov	x19, x0
 b7c:	b4fffe40 	cbz	x0, b44 <fat32_open+0x21c>
 b80:	b940b2c0 	ldr	w0, [x22, #176]
 b84:	b9000260 	str	w0, [x19]
 b88:	52800200 	mov	w0, #0x10                  	// #16
 b8c:	39004260 	strb	w0, [x19, #16]
 b90:	17ffffed 	b	b44 <fat32_open+0x21c>
 b94:	d2800400 	mov	x0, #0x20                  	// #32
 b98:	94000000 	bl	0 <malloc>
 b9c:	aa0003f3 	mov	x19, x0
 ba0:	b5fff8e0 	cbnz	x0, abc <fat32_open+0x194>
 ba4:	a941d7b4 	ldp	x20, x21, [x29, #24]
 ba8:	f9401bb7 	ldr	x23, [x29, #48]
 bac:	f94023b9 	ldr	x25, [x29, #64]
 bb0:	17ffffe5 	b	b44 <fat32_open+0x21c>
