
bin/shell.elf：     文件格式 elf64-littleaarch64


Disassembly of section .text:

0000000000080000 <_start>:
   80000:	d53800a1 	mrs	x1, mpidr_el1
   80004:	92400421 	and	x1, x1, #0x3
   80008:	b4000061 	cbz	x1, 80014 <_start+0x14>
   8000c:	d503205f 	wfe
   80010:	17ffffff 	b	8000c <_start+0xc>
   80014:	580000a1 	ldr	x1, 80028 <_start+0x28>
   80018:	9100003f 	mov	sp, x1
   8001c:	94000761 	bl	81da0 <_cstartup>
   80020:	940000c6 	bl	80338 <kernel_main>
   80024:	17fffffa 	b	8000c <_start+0xc>
   80028:	00080000 	.word	0x00080000
   8002c:	00000000 	.word	0x00000000

0000000000080030 <memcpy>:
   80030:	b40000e2 	cbz	x2, 8004c <memcpy+0x1c>
   80034:	d2800003 	mov	x3, #0x0                   	// #0
   80038:	38636824 	ldrb	w4, [x1, x3]
   8003c:	38236804 	strb	w4, [x0, x3]
   80040:	91000463 	add	x3, x3, #0x1
   80044:	eb03005f 	cmp	x2, x3
   80048:	54ffff81 	b.ne	80038 <memcpy+0x8>  // b.any
   8004c:	d65f03c0 	ret

0000000000080050 <strlen>:
   80050:	aa0003e3 	mov	x3, x0
   80054:	d2800000 	mov	x0, #0x0                   	// #0
   80058:	14000002 	b	80060 <strlen+0x10>
   8005c:	aa0203e0 	mov	x0, x2
   80060:	38606861 	ldrb	w1, [x3, x0]
   80064:	91000402 	add	x2, x0, #0x1
   80068:	35ffffa1 	cbnz	w1, 8005c <strlen+0xc>
   8006c:	d65f03c0 	ret

0000000000080070 <strcmp>:
   80070:	39400002 	ldrb	w2, [x0]
   80074:	39400024 	ldrb	w4, [x1]
   80078:	34000162 	cbz	w2, 800a4 <strcmp+0x34>
   8007c:	6b04005f 	cmp	w2, w4
   80080:	54000181 	b.ne	800b0 <strcmp+0x40>  // b.any
   80084:	d2800022 	mov	x2, #0x1                   	// #1
   80088:	14000002 	b	80090 <strcmp+0x20>
   8008c:	54000121 	b.ne	800b0 <strcmp+0x40>  // b.any
   80090:	38626803 	ldrb	w3, [x0, x2]
   80094:	38626824 	ldrb	w4, [x1, x2]
   80098:	91000442 	add	x2, x2, #0x1
   8009c:	6b04007f 	cmp	w3, w4
   800a0:	35ffff63 	cbnz	w3, 8008c <strcmp+0x1c>
   800a4:	7100009f 	cmp	w4, #0x0
   800a8:	1a9f07e0 	cset	w0, ne  // ne = any
   800ac:	d65f03c0 	ret
   800b0:	52800020 	mov	w0, #0x1                   	// #1
   800b4:	d65f03c0 	ret

00000000000800b8 <strcpy>:
   800b8:	39400022 	ldrb	w2, [x1]
   800bc:	aa0003e3 	mov	x3, x0
   800c0:	340000a2 	cbz	w2, 800d4 <strcpy+0x1c>
   800c4:	d503201f 	nop
   800c8:	38001462 	strb	w2, [x3], #1
   800cc:	38401c22 	ldrb	w2, [x1, #1]!
   800d0:	35ffffc2 	cbnz	w2, 800c8 <strcpy+0x10>
   800d4:	3900007f 	strb	wzr, [x3]
   800d8:	d65f03c0 	ret
   800dc:	d503201f 	nop

00000000000800e0 <strncpy>:
   800e0:	b4000182 	cbz	x2, 80110 <strncpy+0x30>
   800e4:	39400024 	ldrb	w4, [x1]
   800e8:	d2800003 	mov	x3, #0x0                   	// #0
   800ec:	39000004 	strb	w4, [x0]
   800f0:	350000a4 	cbnz	w4, 80104 <strncpy+0x24>
   800f4:	14000007 	b	80110 <strncpy+0x30>
   800f8:	38636824 	ldrb	w4, [x1, x3]
   800fc:	38236804 	strb	w4, [x0, x3]
   80100:	34000084 	cbz	w4, 80110 <strncpy+0x30>
   80104:	91000463 	add	x3, x3, #0x1
   80108:	eb03005f 	cmp	x2, x3
   8010c:	54ffff61 	b.ne	800f8 <strncpy+0x18>  // b.any
   80110:	d65f03c0 	ret
   80114:	d503201f 	nop

0000000000080118 <utf16toascii>:
   80118:	79400022 	ldrh	w2, [x1]
   8011c:	34000122 	cbz	w2, 80140 <utf16toascii+0x28>
   80120:	aa0003e2 	mov	x2, x0
   80124:	d503201f 	nop
   80128:	39400024 	ldrb	w4, [x1]
   8012c:	78402c23 	ldrh	w3, [x1, #2]!
   80130:	38001444 	strb	w4, [x2], #1
   80134:	35ffffa3 	cbnz	w3, 80128 <utf16toascii+0x10>
   80138:	3900005f 	strb	wzr, [x2]
   8013c:	d65f03c0 	ret
   80140:	aa0003e2 	mov	x2, x0
   80144:	3900005f 	strb	wzr, [x2]
   80148:	d65f03c0 	ret
   8014c:	d503201f 	nop

0000000000080150 <utf16ntoascii>:
   80150:	b40001a2 	cbz	x2, 80184 <utf16ntoascii+0x34>
   80154:	39400024 	ldrb	w4, [x1]
   80158:	d2800003 	mov	x3, #0x0                   	// #0
   8015c:	39000004 	strb	w4, [x0]
   80160:	350000c4 	cbnz	w4, 80178 <utf16ntoascii+0x28>
   80164:	14000008 	b	80184 <utf16ntoascii+0x34>
   80168:	d37ff864 	lsl	x4, x3, #1
   8016c:	38646824 	ldrb	w4, [x1, x4]
   80170:	38236804 	strb	w4, [x0, x3]
   80174:	34000084 	cbz	w4, 80184 <utf16ntoascii+0x34>
   80178:	91000463 	add	x3, x3, #0x1
   8017c:	eb03005f 	cmp	x2, x3
   80180:	54ffff41 	b.ne	80168 <utf16ntoascii+0x18>  // b.any
   80184:	d65f03c0 	ret

0000000000080188 <asciitoutf16>:
   80188:	39400022 	ldrb	w2, [x1]
   8018c:	aa0003e3 	mov	x3, x0
   80190:	340000a2 	cbz	w2, 801a4 <asciitoutf16+0x1c>
   80194:	d503201f 	nop
   80198:	78002462 	strh	w2, [x3], #2
   8019c:	38401c22 	ldrb	w2, [x1, #1]!
   801a0:	35ffffc2 	cbnz	w2, 80198 <asciitoutf16+0x10>
   801a4:	7900007f 	strh	wzr, [x3]
   801a8:	d65f03c0 	ret
   801ac:	d503201f 	nop

00000000000801b0 <asciintoutf16>:
   801b0:	b40001a2 	cbz	x2, 801e4 <asciintoutf16+0x34>
   801b4:	39400024 	ldrb	w4, [x1]
   801b8:	d2800003 	mov	x3, #0x0                   	// #0
   801bc:	39000004 	strb	w4, [x0]
   801c0:	350000c4 	cbnz	w4, 801d8 <asciintoutf16+0x28>
   801c4:	14000008 	b	801e4 <asciintoutf16+0x34>
   801c8:	d37ff864 	lsl	x4, x3, #1
   801cc:	38636825 	ldrb	w5, [x1, x3]
   801d0:	38246805 	strb	w5, [x0, x4]
   801d4:	34000085 	cbz	w5, 801e4 <asciintoutf16+0x34>
   801d8:	91000463 	add	x3, x3, #0x1
   801dc:	eb03005f 	cmp	x2, x3
   801e0:	54ffff41 	b.ne	801c8 <asciintoutf16+0x18>  // b.any
   801e4:	d65f03c0 	ret

00000000000801e8 <strcat>:
   801e8:	aa0003e3 	mov	x3, x0
   801ec:	38401402 	ldrb	w2, [x0], #1
   801f0:	35ffffc2 	cbnz	w2, 801e8 <strcat>
   801f4:	39400022 	ldrb	w2, [x1]
   801f8:	aa0303e0 	mov	x0, x3
   801fc:	34000082 	cbz	w2, 8020c <strcat+0x24>
   80200:	38001402 	strb	w2, [x0], #1
   80204:	38401c22 	ldrb	w2, [x1, #1]!
   80208:	35ffffc2 	cbnz	w2, 80200 <strcat+0x18>
   8020c:	3900001f 	strb	wzr, [x0]
   80210:	aa0303e0 	mov	x0, x3
   80214:	d65f03c0 	ret

0000000000080218 <strtok>:
   80218:	90000027 	adrp	x7, 84000 <__func__.3144+0x458>
   8021c:	b4000740 	cbz	x0, 80304 <strtok+0xec>
   80220:	913e00e2 	add	x2, x7, #0xf80
   80224:	39400004 	ldrb	w4, [x0]
   80228:	f907c0e0 	str	x0, [x7, #3968]
   8022c:	f9000440 	str	x0, [x2, #8]
   80230:	34000704 	cbz	w4, 80310 <strtok+0xf8>
   80234:	39400026 	ldrb	w6, [x1]
   80238:	aa0003e5 	mov	x5, x0
   8023c:	d503201f 	nop
   80240:	34000126 	cbz	w6, 80264 <strtok+0x4c>
   80244:	6b0400df 	cmp	w6, w4
   80248:	540004e0 	b.eq	802e4 <strtok+0xcc>  // b.none
   8024c:	aa0103e3 	mov	x3, x1
   80250:	14000002 	b	80258 <strtok+0x40>
   80254:	54000480 	b.eq	802e4 <strtok+0xcc>  // b.none
   80258:	38401c62 	ldrb	w2, [x3, #1]!
   8025c:	6b04005f 	cmp	w2, w4
   80260:	35ffffa2 	cbnz	w2, 80254 <strtok+0x3c>
   80264:	38401ca4 	ldrb	w4, [x5, #1]!
   80268:	35fffec4 	cbnz	w4, 80240 <strtok+0x28>
   8026c:	913e00e1 	add	x1, x7, #0xf80
   80270:	39400002 	ldrb	w2, [x0]
   80274:	f9000825 	str	x5, [x1, #16]
   80278:	913e00e1 	add	x1, x7, #0xf80
   8027c:	f9000420 	str	x0, [x1, #8]
   80280:	35000202 	cbnz	w2, 802c0 <strtok+0xa8>
   80284:	913e00e1 	add	x1, x7, #0xf80
   80288:	f9400823 	ldr	x3, [x1, #16]
   8028c:	eb00007f 	cmp	x3, x0
   80290:	54000369 	b.ls	802fc <strtok+0xe4>  // b.plast
   80294:	91000401 	add	x1, x0, #0x1
   80298:	91000463 	add	x3, x3, #0x1
   8029c:	14000002 	b	802a4 <strtok+0x8c>
   802a0:	540002a0 	b.eq	802f4 <strtok+0xdc>  // b.none
   802a4:	39400022 	ldrb	w2, [x1]
   802a8:	aa0103e0 	mov	x0, x1
   802ac:	91000421 	add	x1, x1, #0x1
   802b0:	eb03003f 	cmp	x1, x3
   802b4:	34ffff62 	cbz	w2, 802a0 <strtok+0x88>
   802b8:	913e00e1 	add	x1, x7, #0xf80
   802bc:	f9000420 	str	x0, [x1, #8]
   802c0:	d2800003 	mov	x3, #0x0                   	// #0
   802c4:	14000003 	b	802d0 <strtok+0xb8>
   802c8:	38616802 	ldrb	w2, [x0, x1]
   802cc:	aa0103e3 	mov	x3, x1
   802d0:	91000461 	add	x1, x3, #0x1
   802d4:	35ffffa2 	cbnz	w2, 802c8 <strtok+0xb0>
   802d8:	8b030003 	add	x3, x0, x3
   802dc:	f907c0e3 	str	x3, [x7, #3968]
   802e0:	d65f03c0 	ret
   802e4:	390000bf 	strb	wzr, [x5]
   802e8:	38401ca4 	ldrb	w4, [x5, #1]!
   802ec:	35fffaa4 	cbnz	w4, 80240 <strtok+0x28>
   802f0:	17ffffdf 	b	8026c <strtok+0x54>
   802f4:	913e00e7 	add	x7, x7, #0xf80
   802f8:	f90004e0 	str	x0, [x7, #8]
   802fc:	d2800000 	mov	x0, #0x0                   	// #0
   80300:	d65f03c0 	ret
   80304:	f947c0e0 	ldr	x0, [x7, #3968]
   80308:	39400002 	ldrb	w2, [x0]
   8030c:	17ffffdb 	b	80278 <strtok+0x60>
   80310:	f9000840 	str	x0, [x2, #16]
   80314:	17ffffdc 	b	80284 <strtok+0x6c>

0000000000080318 <memset>:
   80318:	b40000e2 	cbz	x2, 80334 <memset+0x1c>
   8031c:	12001c21 	and	w1, w1, #0xff
   80320:	aa0003e3 	mov	x3, x0
   80324:	8b020002 	add	x2, x0, x2
   80328:	38001461 	strb	w1, [x3], #1
   8032c:	eb02007f 	cmp	x3, x2
   80330:	54ffffc1 	b.ne	80328 <memset+0x10>  // b.any
   80334:	d65f03c0 	ret

0000000000080338 <kernel_main>:
   80338:	90000020 	adrp	x0, 84000 <__func__.3144+0x458>
   8033c:	912bc000 	add	x0, x0, #0xaf0
   80340:	a9bd7bfd 	stp	x29, x30, [sp, #-48]!
   80344:	910003fd 	mov	x29, sp
   80348:	a9400c02 	ldp	x2, x3, [x0]
   8034c:	f9400800 	ldr	x0, [x0, #16]
   80350:	a9018fa2 	stp	x2, x3, [x29, #24]
   80354:	f90017a0 	str	x0, [x29, #40]
   80358:	940006a4 	bl	81de8 <mu_init>
   8035c:	940006f1 	bl	81f20 <mu_read_byte>
   80360:	12001c00 	and	w0, w0, #0xff
   80364:	7100341f 	cmp	w0, #0xd
   80368:	54ffffa1 	b.ne	8035c <kernel_main+0x24>  // b.any
   8036c:	940000c1 	bl	80670 <mem_init>
   80370:	f94013a0 	ldr	x0, [x29, #32]
   80374:	d63f0000 	blr	x0
   80378:	34000120 	cbz	w0, 8039c <kernel_main+0x64>
   8037c:	f0000003 	adrp	x3, 83000 <fat32_open+0x62c>
   80380:	f0000002 	adrp	x2, 83000 <fat32_open+0x62c>
   80384:	f0000000 	adrp	x0, 83000 <fat32_open+0x62c>
   80388:	91172063 	add	x3, x3, #0x5c8
   8038c:	9116e042 	add	x2, x2, #0x5b8
   80390:	52800301 	mov	w1, #0x18                  	// #24
   80394:	9117a000 	add	x0, x0, #0x5e8
   80398:	94000610 	bl	81bd8 <__panic>
   8039c:	910063a0 	add	x0, x29, #0x18
   803a0:	94000743 	bl	820ac <fat32_init>
   803a4:	90000021 	adrp	x1, 84000 <__func__.3144+0x458>
   803a8:	f947a021 	ldr	x1, [x1, #3904]
   803ac:	f9000020 	str	x0, [x1]
   803b0:	940004c6 	bl	816c8 <shell_loop>
   803b4:	52800000 	mov	w0, #0x0                   	// #0
   803b8:	a8c37bfd 	ldp	x29, x30, [sp], #48
   803bc:	d65f03c0 	ret

00000000000803c0 <cd_read_sector>:
   803c0:	a9b77bfd 	stp	x29, x30, [sp, #-144]!
   803c4:	910003fd 	mov	x29, sp
   803c8:	a90153f3 	stp	x19, x20, [sp, #16]
   803cc:	92400c33 	and	x19, x1, #0xf
   803d0:	a9025bf5 	stp	x21, x22, [sp, #32]
   803d4:	aa0203f6 	mov	x22, x2
   803d8:	8b130c14 	add	x20, x0, x19, lsl #3
   803dc:	a90363f7 	stp	x23, x24, [sp, #48]
   803e0:	a904effa 	stp	x26, x27, [sp, #72]
   803e4:	aa0003fa 	mov	x26, x0
   803e8:	2940d417 	ldp	w23, w21, [x0, #4]
   803ec:	aa0103fb 	mov	x27, x1
   803f0:	f9401280 	ldr	x0, [x20, #32]
   803f4:	2a0103f8 	mov	w24, w1
   803f8:	b40001c0 	cbz	x0, 80430 <cd_read_sector+0x70>
   803fc:	f1004001 	subs	x1, x0, #0x10
   80400:	54000180 	b.eq	80430 <cd_read_sector+0x70>  // b.none
   80404:	f85f8000 	ldur	x0, [x0, #-8]
   80408:	eb00037f 	cmp	x27, x0
   8040c:	540000e1 	b.ne	80428 <cd_read_sector+0x68>  // b.any
   80410:	1400002c 	b	804c0 <cd_read_sector+0x100>
   80414:	f1004001 	subs	x1, x0, #0x10
   80418:	540000c0 	b.eq	80430 <cd_read_sector+0x70>  // b.none
   8041c:	f85f8000 	ldur	x0, [x0, #-8]
   80420:	eb1b001f 	cmp	x0, x27
   80424:	540004e0 	b.eq	804c0 <cd_read_sector+0x100>  // b.none
   80428:	f9400820 	ldr	x0, [x1, #16]
   8042c:	b5ffff40 	cbnz	x0, 80414 <cd_read_sector+0x54>
   80430:	f9002fbc 	str	x28, [x29, #88]
   80434:	d2800400 	mov	x0, #0x20                  	// #32
   80438:	940000ca 	bl	80760 <malloc>
   8043c:	aa0003fc 	mov	x28, x0
   80440:	b4000a00 	cbz	x0, 80580 <cd_read_sector+0x1c0>
   80444:	b9400341 	ldr	w1, [x26]
   80448:	f900079b 	str	x27, [x28, #8]
   8044c:	2a0103e0 	mov	w0, w1
   80450:	eb1b001f 	cmp	x0, x27
   80454:	54000a89 	b.ls	805a4 <cd_read_sector+0x1e4>  // b.plast
   80458:	f9400f42 	ldr	x2, [x26, #24]
   8045c:	aa1603e1 	mov	x1, x22
   80460:	2a1b03e0 	mov	w0, w27
   80464:	d63f0040 	blr	x2
   80468:	7100001f 	cmp	w0, #0x0
   8046c:	5400074d 	b.le	80554 <cd_read_sector+0x194>
   80470:	b9400340 	ldr	w0, [x26]
   80474:	aa1c03e1 	mov	x1, x28
   80478:	f9401282 	ldr	x2, [x20, #32]
   8047c:	91001273 	add	x19, x19, #0x4
   80480:	f8010436 	str	x22, [x1], #16
   80484:	8b130f46 	add	x6, x26, x19, lsl #3
   80488:	f9000b82 	str	x2, [x28, #16]
   8048c:	f9001281 	str	x1, [x20, #32]
   80490:	f9000f86 	str	x6, [x28, #24]
   80494:	b4000362 	cbz	x2, 80500 <cd_read_sector+0x140>
   80498:	f9402fbc 	ldr	x28, [x29, #88]
   8049c:	eb00037f 	cmp	x27, x0
   804a0:	f9000441 	str	x1, [x2, #8]
   804a4:	9a9522e0 	csel	x0, x23, x21, cs  // cs = hs, nlast
   804a8:	a94153f3 	ldp	x19, x20, [sp, #16]
   804ac:	a9425bf5 	ldp	x21, x22, [sp, #32]
   804b0:	a94363f7 	ldp	x23, x24, [sp, #48]
   804b4:	a944effa 	ldp	x26, x27, [sp, #72]
   804b8:	a8c97bfd 	ldp	x29, x30, [sp], #144
   804bc:	d65f03c0 	ret
   804c0:	b9400340 	ldr	w0, [x26]
   804c4:	f9400021 	ldr	x1, [x1]
   804c8:	eb1b001f 	cmp	x0, x27
   804cc:	540002c9 	b.ls	80524 <cd_read_sector+0x164>  // b.plast
   804d0:	aa1503e2 	mov	x2, x21
   804d4:	aa1603e0 	mov	x0, x22
   804d8:	97fffed6 	bl	80030 <memcpy>
   804dc:	b9400340 	ldr	w0, [x26]
   804e0:	a94153f3 	ldp	x19, x20, [sp, #16]
   804e4:	eb00037f 	cmp	x27, x0
   804e8:	9a9522e0 	csel	x0, x23, x21, cs  // cs = hs, nlast
   804ec:	a9425bf5 	ldp	x21, x22, [sp, #32]
   804f0:	a94363f7 	ldp	x23, x24, [sp, #48]
   804f4:	a944effa 	ldp	x26, x27, [sp, #72]
   804f8:	a8c97bfd 	ldp	x29, x30, [sp], #144
   804fc:	d65f03c0 	ret
   80500:	eb00037f 	cmp	x27, x0
   80504:	f9402fbc 	ldr	x28, [x29, #88]
   80508:	9a9522e0 	csel	x0, x23, x21, cs  // cs = hs, nlast
   8050c:	a94153f3 	ldp	x19, x20, [sp, #16]
   80510:	a9425bf5 	ldp	x21, x22, [sp, #32]
   80514:	a94363f7 	ldp	x23, x24, [sp, #48]
   80518:	a944effa 	ldp	x26, x27, [sp, #72]
   8051c:	a8c97bfd 	ldp	x29, x30, [sp], #144
   80520:	d65f03c0 	ret
   80524:	aa1703e2 	mov	x2, x23
   80528:	aa1603e0 	mov	x0, x22
   8052c:	97fffec1 	bl	80030 <memcpy>
   80530:	b9400340 	ldr	w0, [x26]
   80534:	a94153f3 	ldp	x19, x20, [sp, #16]
   80538:	eb00037f 	cmp	x27, x0
   8053c:	9a9522e0 	csel	x0, x23, x21, cs  // cs = hs, nlast
   80540:	a9425bf5 	ldp	x21, x22, [sp, #32]
   80544:	a94363f7 	ldp	x23, x24, [sp, #48]
   80548:	a944effa 	ldp	x26, x27, [sp, #72]
   8054c:	a8c97bfd 	ldp	x29, x30, [sp], #144
   80550:	d65f03c0 	ret
   80554:	f0000003 	adrp	x3, 83000 <fat32_open+0x62c>
   80558:	f0000002 	adrp	x2, 83000 <fat32_open+0x62c>
   8055c:	f0000000 	adrp	x0, 83000 <fat32_open+0x62c>
   80560:	aa1b03e4 	mov	x4, x27
   80564:	9118c000 	add	x0, x0, #0x630
   80568:	91190063 	add	x3, x3, #0x640
   8056c:	9117e042 	add	x2, x2, #0x5f8
   80570:	528007c1 	mov	w1, #0x3e                  	// #62
   80574:	94000599 	bl	81bd8 <__panic>
   80578:	b9400340 	ldr	w0, [x26]
   8057c:	17ffffbe 	b	80474 <cd_read_sector+0xb4>
   80580:	f0000003 	adrp	x3, 83000 <fat32_open+0x62c>
   80584:	f0000002 	adrp	x2, 83000 <fat32_open+0x62c>
   80588:	f0000000 	adrp	x0, 83000 <fat32_open+0x62c>
   8058c:	91182063 	add	x3, x3, #0x608
   80590:	9117e042 	add	x2, x2, #0x5f8
   80594:	52800621 	mov	w1, #0x31                  	// #49
   80598:	9118c000 	add	x0, x0, #0x630
   8059c:	9400058f 	bl	81bd8 <__panic>
   805a0:	17ffffa9 	b	80444 <cd_read_sector+0x84>
   805a4:	f90023b9 	str	x25, [x29, #64]
   805a8:	9ad50af9 	udiv	x25, x23, x21
   805ac:	b90083b9 	str	w25, [x29, #128]
   805b0:	7100033f 	cmp	w25, #0x0
   805b4:	540005ad 	b.le	80668 <cd_read_sector+0x2a8>
   805b8:	f0000000 	adrp	x0, 83000 <fat32_open+0x62c>
   805bc:	9117e000 	add	x0, x0, #0x5f8
   805c0:	f0000002 	adrp	x2, 83000 <fat32_open+0x62c>
   805c4:	b90087b9 	str	w25, [x29, #132]
   805c8:	91190042 	add	x2, x2, #0x640
   805cc:	aa1603e9 	mov	x9, x22
   805d0:	a9068ba0 	stp	x0, x2, [x29, #104]
   805d4:	52800019 	mov	w25, #0x0                   	// #0
   805d8:	f0000000 	adrp	x0, 83000 <fat32_open+0x62c>
   805dc:	f90033a0 	str	x0, [x29, #96]
   805e0:	14000006 	b	805f8 <cd_read_sector+0x238>
   805e4:	b94083a0 	ldr	w0, [x29, #128]
   805e8:	11000739 	add	w25, w25, #0x1
   805ec:	b9400341 	ldr	w1, [x26]
   805f0:	6b19001f 	cmp	w0, w25
   805f4:	54000340 	b.eq	8065c <cd_read_sector+0x29c>  // b.none
   805f8:	b94087a4 	ldr	w4, [x29, #132]
   805fc:	0b010323 	add	w3, w25, w1
   80600:	4b010300 	sub	w0, w24, w1
   80604:	f9400f42 	ldr	x2, [x26, #24]
   80608:	aa0903e1 	mov	x1, x9
   8060c:	8b150129 	add	x9, x9, x21
   80610:	f9003fa9 	str	x9, [x29, #120]
   80614:	1b040c00 	madd	w0, w0, w4, w3
   80618:	f90047a9 	str	x9, [x29, #136]
   8061c:	d63f0040 	blr	x2
   80620:	7100001f 	cmp	w0, #0x0
   80624:	f94047a9 	ldr	x9, [x29, #136]
   80628:	54fffdec 	b.gt	805e4 <cd_read_sector+0x224>
   8062c:	b940034a 	ldr	w10, [x26]
   80630:	52800a61 	mov	w1, #0x53                  	// #83
   80634:	b94087a5 	ldr	w5, [x29, #132]
   80638:	4b0a0304 	sub	w4, w24, w10
   8063c:	f9403ba3 	ldr	x3, [x29, #112]
   80640:	a9460ba0 	ldp	x0, x2, [x29, #96]
   80644:	1b052884 	madd	w4, w4, w5, w10
   80648:	9118c000 	add	x0, x0, #0x630
   8064c:	0b190084 	add	w4, w4, w25
   80650:	94000562 	bl	81bd8 <__panic>
   80654:	f94047a9 	ldr	x9, [x29, #136]
   80658:	17ffffe3 	b	805e4 <cd_read_sector+0x224>
   8065c:	2a0103e0 	mov	w0, w1
   80660:	f94023b9 	ldr	x25, [x29, #64]
   80664:	17ffff84 	b	80474 <cd_read_sector+0xb4>
   80668:	f94023b9 	ldr	x25, [x29, #64]
   8066c:	17ffff82 	b	80474 <cd_read_sector+0xb4>

0000000000080670 <mem_init>:
   80670:	90000023 	adrp	x3, 84000 <__func__.3144+0x458>
   80674:	f9479460 	ldr	x0, [x3, #3880]
   80678:	91068001 	add	x1, x0, #0x1a0
   8067c:	d503201f 	nop
   80680:	a9000000 	stp	x0, x0, [x0]
   80684:	91004000 	add	x0, x0, #0x10
   80688:	eb01001f 	cmp	x0, x1
   8068c:	54ffffa1 	b.ne	80680 <mem_init+0x10>  // b.any
   80690:	d2802000 	mov	x0, #0x100                 	// #256
   80694:	b9400401 	ldr	w1, [x0, #4]
   80698:	34000181 	cbz	w1, 806c8 <mem_init+0x58>
   8069c:	52800042 	mov	w2, #0x2                   	// #2
   806a0:	72aa8822 	movk	w2, #0x5441, lsl #16
   806a4:	6b02003f 	cmp	w1, w2
   806a8:	54000061 	b.ne	806b4 <mem_init+0x44>  // b.any
   806ac:	1400000f 	b	806e8 <mem_init+0x78>
   806b0:	540001c0 	b.eq	806e8 <mem_init+0x78>  // b.none
   806b4:	b9400001 	ldr	w1, [x0]
   806b8:	8b214800 	add	x0, x0, w1, uxtw #2
   806bc:	b9400401 	ldr	w1, [x0, #4]
   806c0:	6b02003f 	cmp	w1, w2
   806c4:	35ffff61 	cbnz	w1, 806b0 <mem_init+0x40>
   806c8:	f0000003 	adrp	x3, 83000 <fat32_open+0x62c>
   806cc:	f0000002 	adrp	x2, 83000 <fat32_open+0x62c>
   806d0:	f0000000 	adrp	x0, 83000 <fat32_open+0x62c>
   806d4:	911b6063 	add	x3, x3, #0x6d8
   806d8:	9119a042 	add	x2, x2, #0x668
   806dc:	52800581 	mov	w1, #0x2c                  	// #44
   806e0:	911b2000 	add	x0, x0, #0x6c8
   806e4:	1400053d 	b	81bd8 <__panic>
   806e8:	b9400805 	ldr	w5, [x0, #8]
   806ec:	f9478c62 	ldr	x2, [x3, #3864]
   806f0:	b9400c00 	ldr	w0, [x0, #12]
   806f4:	f947a464 	ldr	x4, [x3, #3912]
   806f8:	2a0003e0 	mov	w0, w0
   806fc:	8b254005 	add	x5, x0, w5, uxtw
   80700:	a9001444 	stp	x4, x5, [x2]
   80704:	eb0400bf 	cmp	x5, x4
   80708:	54000049 	b.ls	80710 <mem_init+0xa0>  // b.plast
   8070c:	d65f03c0 	ret
   80710:	f0000003 	adrp	x3, 83000 <fat32_open+0x62c>
   80714:	f0000002 	adrp	x2, 83000 <fat32_open+0x62c>
   80718:	f0000000 	adrp	x0, 83000 <fat32_open+0x62c>
   8071c:	911a2063 	add	x3, x3, #0x688
   80720:	9119a042 	add	x2, x2, #0x668
   80724:	52800441 	mov	w1, #0x22                  	// #34
   80728:	911b2000 	add	x0, x0, #0x6c8
   8072c:	1400052b 	b	81bd8 <__panic>

0000000000080730 <bump_alloc>:
   80730:	90000022 	adrp	x2, 84000 <__func__.3144+0x458>
   80734:	90000023 	adrp	x3, 84000 <__func__.3144+0x458>
   80738:	91001c01 	add	x1, x0, #0x7
   8073c:	f9478c42 	ldr	x2, [x2, #3864]
   80740:	927df021 	and	x1, x1, #0xfffffffffffffff8
   80744:	f9458460 	ldr	x0, [x3, #2824]
   80748:	8b010001 	add	x1, x0, x1
   8074c:	f9058461 	str	x1, [x3, #2824]
   80750:	f9400442 	ldr	x2, [x2, #8]
   80754:	eb02003f 	cmp	x1, x2
   80758:	9a9f9000 	csel	x0, x0, xzr, ls  // ls = plast
   8075c:	d65f03c0 	ret

0000000000080760 <malloc>:
   80760:	91006001 	add	x1, x0, #0x18
   80764:	f100803f 	cmp	x1, #0x20
   80768:	54000789 	b.ls	80858 <malloc+0xf8>  // b.plast
   8076c:	91005c02 	add	x2, x0, #0x17
   80770:	dac01023 	clz	x3, x1
   80774:	ea01005f 	tst	x2, x1
   80778:	52800804 	mov	w4, #0x40                  	// #64
   8077c:	1a9f17e1 	cset	w1, eq  // eq = none
   80780:	4b030084 	sub	w4, w4, w3
   80784:	4b010084 	sub	w4, w4, w1
   80788:	90000025 	adrp	x5, 84000 <__func__.3144+0x458>
   8078c:	51001484 	sub	w4, w4, #0x5
   80790:	f94794a3 	ldr	x3, [x5, #3880]
   80794:	93407c81 	sxtw	x1, w4
   80798:	8b011063 	add	x3, x3, x1, lsl #4
   8079c:	f94794a2 	ldr	x2, [x5, #3880]
   807a0:	8b011041 	add	x1, x2, x1, lsl #4
   807a4:	f9400421 	ldr	x1, [x1, #8]
   807a8:	d1002022 	sub	x2, x1, #0x8
   807ac:	eb01007f 	cmp	x3, x1
   807b0:	540000c1 	b.ne	807c8 <malloc+0x68>  // b.any
   807b4:	1400000d 	b	807e8 <malloc+0x88>
   807b8:	f9400841 	ldr	x1, [x2, #16]
   807bc:	eb01007f 	cmp	x3, x1
   807c0:	d1002022 	sub	x2, x1, #0x8
   807c4:	54000120 	b.eq	807e8 <malloc+0x88>  // b.none
   807c8:	b85f8021 	ldur	w1, [x1, #-8]
   807cc:	3707ff61 	tbnz	w1, #0, 807b8 <malloc+0x58>
   807d0:	11001c00 	add	w0, w0, #0x7
   807d4:	121d7000 	and	w0, w0, #0xfffffff8
   807d8:	32000000 	orr	w0, w0, #0x1
   807dc:	b8018440 	str	w0, [x2], #24
   807e0:	aa0203e0 	mov	x0, x2
   807e4:	d65f03c0 	ret
   807e8:	11001484 	add	w4, w4, #0x5
   807ec:	52800021 	mov	w1, #0x1                   	// #1
   807f0:	90000022 	adrp	x2, 84000 <__func__.3144+0x458>
   807f4:	f9478ca7 	ldr	x7, [x5, #3864]
   807f8:	1ac42021 	lsl	w1, w1, w4
   807fc:	93407c21 	sxtw	x1, w1
   80800:	f9458444 	ldr	x4, [x2, #2824]
   80804:	91001c21 	add	x1, x1, #0x7
   80808:	927df021 	and	x1, x1, #0xfffffffffffffff8
   8080c:	f94004e5 	ldr	x5, [x7, #8]
   80810:	8b010081 	add	x1, x4, x1
   80814:	f9058441 	str	x1, [x2, #2824]
   80818:	f100009f 	cmp	x4, #0x0
   8081c:	fa451022 	ccmp	x1, x5, #0x2, ne  // ne = any
   80820:	54000268 	b.hi	8086c <malloc+0x10c>  // b.pmore
   80824:	f9400063 	ldr	x3, [x3]
   80828:	aa0403e1 	mov	x1, x4
   8082c:	11001c00 	add	w0, w0, #0x7
   80830:	91006082 	add	x2, x4, #0x18
   80834:	121d7000 	and	w0, w0, #0xfffffff8
   80838:	f9400465 	ldr	x5, [x3, #8]
   8083c:	32000000 	orr	w0, w0, #0x1
   80840:	b8008420 	str	w0, [x1], #8
   80844:	aa0203e0 	mov	x0, x2
   80848:	a9009483 	stp	x3, x5, [x4, #8]
   8084c:	f9000461 	str	x1, [x3, #8]
   80850:	f90000a1 	str	x1, [x5]
   80854:	d65f03c0 	ret
   80858:	90000025 	adrp	x5, 84000 <__func__.3144+0x458>
   8085c:	52800004 	mov	w4, #0x0                   	// #0
   80860:	d2800001 	mov	x1, #0x0                   	// #0
   80864:	f94794a3 	ldr	x3, [x5, #3880]
   80868:	17ffffcd 	b	8079c <malloc+0x3c>
   8086c:	d2800002 	mov	x2, #0x0                   	// #0
   80870:	17ffffdc 	b	807e0 <malloc+0x80>
   80874:	d503201f 	nop

0000000000080878 <free>:
   80878:	a9be7bfd 	stp	x29, x30, [sp, #-32]!
   8087c:	aa0003e2 	mov	x2, x0
   80880:	f0000001 	adrp	x1, 83000 <fat32_open+0x62c>
   80884:	911be021 	add	x1, x1, #0x6f8
   80888:	910003fd 	mov	x29, sp
   8088c:	a90153f3 	stp	x19, x20, [sp, #16]
   80890:	f0000013 	adrp	x19, 83000 <fat32_open+0x62c>
   80894:	9119a273 	add	x19, x19, #0x668
   80898:	aa0003f4 	mov	x20, x0
   8089c:	91004273 	add	x19, x19, #0x10
   808a0:	aa1303e0 	mov	x0, x19
   808a4:	94000519 	bl	81d08 <__debug>
   808a8:	d1006282 	sub	x2, x20, #0x18
   808ac:	aa1303e0 	mov	x0, x19
   808b0:	f0000001 	adrp	x1, 83000 <fat32_open+0x62c>
   808b4:	911c2021 	add	x1, x1, #0x708
   808b8:	94000514 	bl	81d08 <__debug>
   808bc:	b85e8282 	ldur	w2, [x20, #-24]
   808c0:	aa1303e0 	mov	x0, x19
   808c4:	f0000001 	adrp	x1, 83000 <fat32_open+0x62c>
   808c8:	911ca021 	add	x1, x1, #0x728
   808cc:	121f7842 	and	w2, w2, #0xfffffffe
   808d0:	b81e8282 	stur	w2, [x20, #-24]
   808d4:	a94153f3 	ldp	x19, x20, [sp, #16]
   808d8:	a8c27bfd 	ldp	x29, x30, [sp], #32
   808dc:	1400050b 	b	81d08 <__debug>

00000000000808e0 <realloc>:
   808e0:	a9bc7bfd 	stp	x29, x30, [sp, #-64]!
   808e4:	910003fd 	mov	x29, sp
   808e8:	a90153f3 	stp	x19, x20, [sp, #16]
   808ec:	f0000013 	adrp	x19, 83000 <fat32_open+0x62c>
   808f0:	f9001bf7 	str	x23, [sp, #48]
   808f4:	9119a273 	add	x19, x19, #0x668
   808f8:	b85e8017 	ldur	w23, [x0, #-24]
   808fc:	aa0103f4 	mov	x20, x1
   80900:	91006273 	add	x19, x19, #0x18
   80904:	a9025bf5 	stp	x21, x22, [sp, #32]
   80908:	f0000001 	adrp	x1, 83000 <fat32_open+0x62c>
   8090c:	aa0003f5 	mov	x21, x0
   80910:	aa1403e3 	mov	x3, x20
   80914:	911ce021 	add	x1, x1, #0x738
   80918:	aa1303e0 	mov	x0, x19
   8091c:	aa1703e2 	mov	x2, x23
   80920:	940004fa 	bl	81d08 <__debug>
   80924:	b4000334 	cbz	x20, 80988 <realloc+0xa8>
   80928:	aa1403e0 	mov	x0, x20
   8092c:	97ffff8d 	bl	80760 <malloc>
   80930:	aa0003f6 	mov	x22, x0
   80934:	b40001e0 	cbz	x0, 80970 <realloc+0x90>
   80938:	eb1402ff 	cmp	x23, x20
   8093c:	aa1503e1 	mov	x1, x21
   80940:	9a9492e2 	csel	x2, x23, x20, ls  // ls = plast
   80944:	97fffdbb 	bl	80030 <memcpy>
   80948:	aa1503e0 	mov	x0, x21
   8094c:	97ffffcb 	bl	80878 <free>
   80950:	f0000001 	adrp	x1, 83000 <fat32_open+0x62c>
   80954:	8b3542e5 	add	x5, x23, w21, uxtw
   80958:	2a1503e4 	mov	w4, w21
   8095c:	8b364283 	add	x3, x20, w22, uxtw
   80960:	2a1603e2 	mov	w2, w22
   80964:	911da021 	add	x1, x1, #0x768
   80968:	aa1303e0 	mov	x0, x19
   8096c:	940004e7 	bl	81d08 <__debug>
   80970:	aa1603e0 	mov	x0, x22
   80974:	f9401bf7 	ldr	x23, [sp, #48]
   80978:	a94153f3 	ldp	x19, x20, [sp, #16]
   8097c:	a9425bf5 	ldp	x21, x22, [sp, #32]
   80980:	a8c47bfd 	ldp	x29, x30, [sp], #64
   80984:	d65f03c0 	ret
   80988:	aa1503e0 	mov	x0, x21
   8098c:	d2800016 	mov	x22, #0x0                   	// #0
   80990:	97ffffba 	bl	80878 <free>
   80994:	17fffff7 	b	80970 <realloc+0x90>

0000000000080998 <read_cmd>:
   80998:	a9bd7bfd 	stp	x29, x30, [sp, #-48]!
   8099c:	910003fd 	mov	x29, sp
   809a0:	a9025bf5 	stp	x21, x22, [sp, #32]
   809a4:	90000036 	adrp	x22, 84000 <__func__.3144+0x458>
   809a8:	aa0003f5 	mov	x21, x0
   809ac:	911c82d6 	add	x22, x22, #0x720
   809b0:	a90153f3 	stp	x19, x20, [sp, #16]
   809b4:	52800014 	mov	w20, #0x0                   	// #0
   809b8:	9400055a 	bl	81f20 <mu_read_byte>
   809bc:	12001c01 	and	w1, w0, #0xff
   809c0:	2a0103f3 	mov	w19, w1
   809c4:	7100343f 	cmp	w1, #0xd
   809c8:	54000200 	b.eq	80a08 <read_cmd+0x70>  // b.none
   809cc:	7100203f 	cmp	w1, #0x8
   809d0:	540000c0 	b.eq	809e8 <read_cmd+0x50>  // b.none
   809d4:	54000309 	b.ls	80a34 <read_cmd+0x9c>  // b.plast
   809d8:	7100243f 	cmp	w1, #0x9
   809dc:	540003e0 	b.eq	80a58 <read_cmd+0xc0>  // b.none
   809e0:	7101fc3f 	cmp	w1, #0x7f
   809e4:	540002a1 	b.ne	80a38 <read_cmd+0xa0>  // b.any
   809e8:	350003f4 	cbnz	w20, 80a64 <read_cmd+0xcc>
   809ec:	528000e0 	mov	w0, #0x7                   	// #7
   809f0:	94000536 	bl	81ec8 <mu_write_byte>
   809f4:	9400054b 	bl	81f20 <mu_read_byte>
   809f8:	12001c01 	and	w1, w0, #0xff
   809fc:	2a0103f3 	mov	w19, w1
   80a00:	7100343f 	cmp	w1, #0xd
   80a04:	54fffe41 	b.ne	809cc <read_cmd+0x34>  // b.any
   80a08:	710ffe9f 	cmp	w20, #0x3ff
   80a0c:	540003cc 	b.gt	80a84 <read_cmd+0xec>
   80a10:	3834cabf 	strb	wzr, [x21, w20, sxtw]
   80a14:	90000020 	adrp	x0, 84000 <__func__.3144+0x458>
   80a18:	911c8000 	add	x0, x0, #0x720
   80a1c:	94000451 	bl	81b60 <kprintf>
   80a20:	aa1503e0 	mov	x0, x21
   80a24:	a94153f3 	ldp	x19, x20, [sp, #16]
   80a28:	a9425bf5 	ldp	x21, x22, [sp, #32]
   80a2c:	a8c37bfd 	ldp	x29, x30, [sp], #48
   80a30:	d65f03c0 	ret
   80a34:	34fffc21 	cbz	w1, 809b8 <read_cmd+0x20>
   80a38:	373ffc13 	tbnz	w19, #7, 809b8 <read_cmd+0x20>
   80a3c:	2a1303e0 	mov	w0, w19
   80a40:	94000522 	bl	81ec8 <mu_write_byte>
   80a44:	710ffe9f 	cmp	w20, #0x3ff
   80a48:	54fffb8c 	b.gt	809b8 <read_cmd+0x20>
   80a4c:	3834cab3 	strb	w19, [x21, w20, sxtw]
   80a50:	11000694 	add	w20, w20, #0x1
   80a54:	17ffffd9 	b	809b8 <read_cmd+0x20>
   80a58:	aa1603e0 	mov	x0, x22
   80a5c:	94000441 	bl	81b60 <kprintf>
   80a60:	17ffffd6 	b	809b8 <read_cmd+0x20>
   80a64:	52800100 	mov	w0, #0x8                   	// #8
   80a68:	94000518 	bl	81ec8 <mu_write_byte>
   80a6c:	52800400 	mov	w0, #0x20                  	// #32
   80a70:	94000516 	bl	81ec8 <mu_write_byte>
   80a74:	52800100 	mov	w0, #0x8                   	// #8
   80a78:	51000694 	sub	w20, w20, #0x1
   80a7c:	94000513 	bl	81ec8 <mu_write_byte>
   80a80:	17ffffce 	b	809b8 <read_cmd+0x20>
   80a84:	f0000000 	adrp	x0, 83000 <fat32_open+0x62c>
   80a88:	912ec000 	add	x0, x0, #0xbb0
   80a8c:	94000435 	bl	81b60 <kprintf>
   80a90:	d2800000 	mov	x0, #0x0                   	// #0
   80a94:	17ffffe4 	b	80a24 <read_cmd+0x8c>

0000000000080a98 <parse_cmd>:
   80a98:	a9be7bfd 	stp	x29, x30, [sp, #-32]!
   80a9c:	910003fd 	mov	x29, sp
   80aa0:	a90153f3 	stp	x19, x20, [sp, #16]
   80aa4:	aa0003f3 	mov	x19, x0
   80aa8:	f0000014 	adrp	x20, 83000 <fat32_open+0x62c>
   80aac:	912f2294 	add	x20, x20, #0xbc8
   80ab0:	aa0103e0 	mov	x0, x1
   80ab4:	aa1403e1 	mov	x1, x20
   80ab8:	b910067f 	str	wzr, [x19, #4100]
   80abc:	97fffdd7 	bl	80218 <strtok>
   80ac0:	b5000180 	cbnz	x0, 80af0 <parse_cmd+0x58>
   80ac4:	14000015 	b	80b18 <parse_cmd+0x80>
   80ac8:	11000443 	add	w3, w2, #0x1
   80acc:	d37a7c42 	ubfiz	x2, x2, #6, #32
   80ad0:	b9100663 	str	w3, [x19, #4100]
   80ad4:	aa0003e1 	mov	x1, x0
   80ad8:	8b020260 	add	x0, x19, x2
   80adc:	97fffd77 	bl	800b8 <strcpy>
   80ae0:	aa1403e1 	mov	x1, x20
   80ae4:	d2800000 	mov	x0, #0x0                   	// #0
   80ae8:	97fffdcc 	bl	80218 <strtok>
   80aec:	b4000160 	cbz	x0, 80b18 <parse_cmd+0x80>
   80af0:	b9500662 	ldr	w2, [x19, #4100]
   80af4:	7100fc5f 	cmp	w2, #0x3f
   80af8:	54fffe89 	b.ls	80ac8 <parse_cmd+0x30>  // b.plast
   80afc:	f0000000 	adrp	x0, 83000 <fat32_open+0x62c>
   80b00:	912f4000 	add	x0, x0, #0xbd0
   80b04:	94000417 	bl	81b60 <kprintf>
   80b08:	12800000 	mov	w0, #0xffffffff            	// #-1
   80b0c:	a94153f3 	ldp	x19, x20, [sp, #16]
   80b10:	a8c27bfd 	ldp	x29, x30, [sp], #32
   80b14:	d65f03c0 	ret
   80b18:	b9500660 	ldr	w0, [x19, #4100]
   80b1c:	a94153f3 	ldp	x19, x20, [sp, #16]
   80b20:	a8c27bfd 	ldp	x29, x30, [sp], #32
   80b24:	d65f03c0 	ret

0000000000080b28 <echo>:
   80b28:	34000401 	cbz	w1, 80ba8 <echo+0x80>
   80b2c:	a9bc7bfd 	stp	x29, x30, [sp, #-64]!
   80b30:	910003fd 	mov	x29, sp
   80b34:	a90153f3 	stp	x19, x20, [sp, #16]
   80b38:	aa0003f4 	mov	x20, x0
   80b3c:	a9025bf5 	stp	x21, x22, [sp, #32]
   80b40:	f0000016 	adrp	x22, 83000 <fat32_open+0x62c>
   80b44:	a90363f7 	stp	x23, x24, [sp, #48]
   80b48:	2a0103f5 	mov	w21, w1
   80b4c:	f0000017 	adrp	x23, 83000 <fat32_open+0x62c>
   80b50:	51000438 	sub	w24, w1, #0x1
   80b54:	912fa2d6 	add	x22, x22, #0xbe8
   80b58:	912f22f7 	add	x23, x23, #0xbc8
   80b5c:	52800013 	mov	w19, #0x0                   	// #0
   80b60:	aa1403e1 	mov	x1, x20
   80b64:	aa1603e0 	mov	x0, x22
   80b68:	940003fe 	bl	81b60 <kprintf>
   80b6c:	91010294 	add	x20, x20, #0x40
   80b70:	6b18027f 	cmp	w19, w24
   80b74:	11000673 	add	w19, w19, #0x1
   80b78:	54000060 	b.eq	80b84 <echo+0x5c>  // b.none
   80b7c:	aa1703e0 	mov	x0, x23
   80b80:	940003f8 	bl	81b60 <kprintf>
   80b84:	6b1302bf 	cmp	w21, w19
   80b88:	54fffec1 	b.ne	80b60 <echo+0x38>  // b.any
   80b8c:	a94153f3 	ldp	x19, x20, [sp, #16]
   80b90:	90000020 	adrp	x0, 84000 <__func__.3144+0x458>
   80b94:	a9425bf5 	ldp	x21, x22, [sp, #32]
   80b98:	911c8000 	add	x0, x0, #0x720
   80b9c:	a94363f7 	ldp	x23, x24, [sp, #48]
   80ba0:	a8c47bfd 	ldp	x29, x30, [sp], #64
   80ba4:	140003ef 	b	81b60 <kprintf>
   80ba8:	d65f03c0 	ret
   80bac:	d503201f 	nop

0000000000080bb0 <cat>:
   80bb0:	d11183ff 	sub	sp, sp, #0x460
   80bb4:	f0000003 	adrp	x3, 83000 <fat32_open+0x62c>
   80bb8:	d2807fc2 	mov	x2, #0x3fe                 	// #1022
   80bbc:	a9007bfd 	stp	x29, x30, [sp]
   80bc0:	910003fd 	mov	x29, sp
   80bc4:	f9000bf3 	str	x19, [sp, #16]
   80bc8:	aa0003f3 	mov	x19, x0
   80bcc:	794f5060 	ldrh	w0, [x3, #1960]
   80bd0:	f90017f6 	str	x22, [sp, #40]
   80bd4:	2a0103f6 	mov	w22, w1
   80bd8:	7900c3a0 	strh	w0, [x29, #96]
   80bdc:	52800001 	mov	w1, #0x0                   	// #0
   80be0:	91018ba0 	add	x0, x29, #0x62
   80be4:	97fffdcd 	bl	80318 <memset>
   80be8:	34000736 	cbz	w22, 80ccc <cat+0x11c>
   80bec:	510006d6 	sub	w22, w22, #0x1
   80bf0:	91010260 	add	x0, x19, #0x40
   80bf4:	52800801 	mov	w1, #0x40                  	// #64
   80bf8:	a901d7b4 	stp	x20, x21, [x29, #24]
   80bfc:	a90363b7 	stp	x23, x24, [x29, #48]
   80c00:	910183b4 	add	x20, x29, #0x60
   80c04:	a9046bb9 	stp	x25, x26, [x29, #64]
   80c08:	90000037 	adrp	x23, 84000 <__func__.3144+0x458>
   80c0c:	90000038 	adrp	x24, 84000 <__func__.3144+0x458>
   80c10:	912c42f7 	add	x23, x23, #0xb10
   80c14:	9ba102d6 	umaddl	x22, w22, w1, x0
   80c18:	910163ba 	add	x26, x29, #0x58
   80c1c:	9117e318 	add	x24, x24, #0x5f8
   80c20:	90000039 	adrp	x25, 84000 <__func__.3144+0x458>
   80c24:	1400000e 	b	80c5c <cat+0xac>
   80c28:	39404000 	ldrb	w0, [x0, #16]
   80c2c:	37200600 	tbnz	w0, #4, 80cec <cat+0x13c>
   80c30:	b9400021 	ldr	w1, [x1]
   80c34:	91010273 	add	x19, x19, #0x40
   80c38:	f94002a0 	ldr	x0, [x21]
   80c3c:	9400061f 	bl	824b8 <fat32_read_chain>
   80c40:	f9402fa1 	ldr	x1, [x29, #88]
   80c44:	3820683f 	strb	wzr, [x1, x0]
   80c48:	aa1803e0 	mov	x0, x24
   80c4c:	f9402fa1 	ldr	x1, [x29, #88]
   80c50:	940003c4 	bl	81b60 <kprintf>
   80c54:	eb16027f 	cmp	x19, x22
   80c58:	54000620 	b.eq	80d1c <cat+0x16c>  // b.none
   80c5c:	39400262 	ldrb	w2, [x19]
   80c60:	aa1703e1 	mov	x1, x23
   80c64:	aa1403e0 	mov	x0, x20
   80c68:	7100bc5f 	cmp	w2, #0x2f
   80c6c:	54000040 	b.eq	80c74 <cat+0xc4>  // b.none
   80c70:	97fffd12 	bl	800b8 <strcpy>
   80c74:	aa1303e1 	mov	x1, x19
   80c78:	aa1403e0 	mov	x0, x20
   80c7c:	97fffd5b 	bl	801e8 <strcat>
   80c80:	f947a335 	ldr	x21, [x25, #3904]
   80c84:	aa1403e1 	mov	x1, x20
   80c88:	f94002a0 	ldr	x0, [x21]
   80c8c:	94000752 	bl	829d4 <fat32_open>
   80c90:	aa0003e1 	mov	x1, x0
   80c94:	aa1a03e2 	mov	x2, x26
   80c98:	b5fffc80 	cbnz	x0, 80c28 <cat+0x78>
   80c9c:	aa1303e1 	mov	x1, x19
   80ca0:	f0000000 	adrp	x0, 83000 <fat32_open+0x62c>
   80ca4:	91300000 	add	x0, x0, #0xc00
   80ca8:	940003ae 	bl	81b60 <kprintf>
   80cac:	a941d7b4 	ldp	x20, x21, [x29, #24]
   80cb0:	a94363b7 	ldp	x23, x24, [x29, #48]
   80cb4:	a9446bb9 	ldp	x25, x26, [x29, #64]
   80cb8:	a9407bfd 	ldp	x29, x30, [sp]
   80cbc:	f9400bf3 	ldr	x19, [sp, #16]
   80cc0:	f94017f6 	ldr	x22, [sp, #40]
   80cc4:	911183ff 	add	sp, sp, #0x460
   80cc8:	d65f03c0 	ret
   80ccc:	f0000000 	adrp	x0, 83000 <fat32_open+0x62c>
   80cd0:	912fc000 	add	x0, x0, #0xbf0
   80cd4:	940003a3 	bl	81b60 <kprintf>
   80cd8:	f9400bf3 	ldr	x19, [sp, #16]
   80cdc:	a9407bfd 	ldp	x29, x30, [sp]
   80ce0:	f94017f6 	ldr	x22, [sp, #40]
   80ce4:	911183ff 	add	sp, sp, #0x460
   80ce8:	d65f03c0 	ret
   80cec:	aa1303e1 	mov	x1, x19
   80cf0:	f0000000 	adrp	x0, 83000 <fat32_open+0x62c>
   80cf4:	91308000 	add	x0, x0, #0xc20
   80cf8:	9400039a 	bl	81b60 <kprintf>
   80cfc:	a941d7b4 	ldp	x20, x21, [x29, #24]
   80d00:	a94363b7 	ldp	x23, x24, [x29, #48]
   80d04:	a9446bb9 	ldp	x25, x26, [x29, #64]
   80d08:	a9407bfd 	ldp	x29, x30, [sp]
   80d0c:	f9400bf3 	ldr	x19, [sp, #16]
   80d10:	f94017f6 	ldr	x22, [sp, #40]
   80d14:	911183ff 	add	sp, sp, #0x460
   80d18:	d65f03c0 	ret
   80d1c:	a941d7b4 	ldp	x20, x21, [x29, #24]
   80d20:	a94363b7 	ldp	x23, x24, [x29, #48]
   80d24:	a9446bb9 	ldp	x25, x26, [x29, #64]
   80d28:	a9407bfd 	ldp	x29, x30, [sp]
   80d2c:	f9400bf3 	ldr	x19, [sp, #16]
   80d30:	f94017f6 	ldr	x22, [sp, #40]
   80d34:	911183ff 	add	sp, sp, #0x460
   80d38:	d65f03c0 	ret
   80d3c:	d503201f 	nop

0000000000080d40 <cd>:
   80d40:	d12143ff 	sub	sp, sp, #0x850
   80d44:	f0000003 	adrp	x3, 83000 <fat32_open+0x62c>
   80d48:	d2807fc2 	mov	x2, #0x3fe                 	// #1022
   80d4c:	a9007bfd 	stp	x29, x30, [sp]
   80d50:	910003fd 	mov	x29, sp
   80d54:	a90153f3 	stp	x19, x20, [sp, #16]
   80d58:	aa0003f4 	mov	x20, x0
   80d5c:	794f5060 	ldrh	w0, [x3, #1960]
   80d60:	2a0103f3 	mov	w19, w1
   80d64:	7900a3a0 	strh	w0, [x29, #80]
   80d68:	52800001 	mov	w1, #0x0                   	// #0
   80d6c:	91014ba0 	add	x0, x29, #0x52
   80d70:	97fffd6a 	bl	80318 <memset>
   80d74:	7100067f 	cmp	w19, #0x1
   80d78:	54000aa8 	b.hi	80ecc <cd+0x18c>  // b.pmore
   80d7c:	34000a13 	cbz	w19, 80ebc <cd+0x17c>
   80d80:	f9001bb7 	str	x23, [x29, #48]
   80d84:	910143b3 	add	x19, x29, #0x50
   80d88:	39400280 	ldrb	w0, [x20]
   80d8c:	7100bc1f 	cmp	w0, #0x2f
   80d90:	54000ac1 	b.ne	80ee8 <cd+0x1a8>  // b.any
   80d94:	aa1403e1 	mov	x1, x20
   80d98:	aa1303e0 	mov	x0, x19
   80d9c:	97fffd13 	bl	801e8 <strcat>
   80da0:	90000020 	adrp	x0, 84000 <__func__.3144+0x458>
   80da4:	aa1303e1 	mov	x1, x19
   80da8:	f947a000 	ldr	x0, [x0, #3904]
   80dac:	f9400000 	ldr	x0, [x0]
   80db0:	94000709 	bl	829d4 <fat32_open>
   80db4:	aa0003f7 	mov	x23, x0
   80db8:	b4000b40 	cbz	x0, 80f20 <cd+0x1e0>
   80dbc:	39404000 	ldrb	w0, [x0, #16]
   80dc0:	362009e0 	tbz	w0, #4, 80efc <cd+0x1bc>
   80dc4:	f90013b5 	str	x21, [x29, #32]
   80dc8:	f0000015 	adrp	x21, 83000 <fat32_open+0x62c>
   80dcc:	913142b5 	add	x21, x21, #0xc50
   80dd0:	aa1303e0 	mov	x0, x19
   80dd4:	aa1503e1 	mov	x1, x21
   80dd8:	97fffd10 	bl	80218 <strtok>
   80ddc:	aa0003f4 	mov	x20, x0
   80de0:	b4000ac0 	cbz	x0, 80f38 <cd+0x1f8>
   80de4:	f90017b6 	str	x22, [x29, #40]
   80de8:	f0000016 	adrp	x22, 83000 <fat32_open+0x62c>
   80dec:	a903e7b8 	stp	x24, x25, [x29, #56]
   80df0:	913182d6 	add	x22, x22, #0xc60
   80df4:	f0000018 	adrp	x24, 83000 <fat32_open+0x62c>
   80df8:	911143b9 	add	x25, x29, #0x450
   80dfc:	91316318 	add	x24, x24, #0xc58
   80e00:	12800013 	mov	w19, #0xffffffff            	// #-1
   80e04:	d503201f 	nop
   80e08:	aa1403e1 	mov	x1, x20
   80e0c:	aa1803e0 	mov	x0, x24
   80e10:	97fffc98 	bl	80070 <strcmp>
   80e14:	35000080 	cbnz	w0, 80e24 <cd+0xe4>
   80e18:	3100067f 	cmn	w19, #0x1
   80e1c:	1a9f07e0 	cset	w0, ne  // ne = any
   80e20:	4b000273 	sub	w19, w19, w0
   80e24:	aa1403e1 	mov	x1, x20
   80e28:	aa1603e0 	mov	x0, x22
   80e2c:	97fffc91 	bl	80070 <strcmp>
   80e30:	34000060 	cbz	w0, 80e3c <cd+0xfc>
   80e34:	11000673 	add	w19, w19, #0x1
   80e38:	f833db34 	str	x20, [x25, w19, sxtw #3]
   80e3c:	aa1503e1 	mov	x1, x21
   80e40:	d2800000 	mov	x0, #0x0                   	// #0
   80e44:	97fffcf5 	bl	80218 <strtok>
   80e48:	aa0003f4 	mov	x20, x0
   80e4c:	b5fffde0 	cbnz	x0, 80e08 <cd+0xc8>
   80e50:	90000036 	adrp	x22, 84000 <__func__.3144+0x458>
   80e54:	912c42d6 	add	x22, x22, #0xb10
   80e58:	aa1503e1 	mov	x1, x21
   80e5c:	aa1603e0 	mov	x0, x22
   80e60:	97fffc96 	bl	800b8 <strcpy>
   80e64:	3100067f 	cmn	w19, #0x1
   80e68:	540001e0 	b.eq	80ea4 <cd+0x164>  // b.none
   80e6c:	93407e73 	sxtw	x19, w19
   80e70:	911143b8 	add	x24, x29, #0x450
   80e74:	91000673 	add	x19, x19, #0x1
   80e78:	d2800014 	mov	x20, #0x0                   	// #0
   80e7c:	d503201f 	nop
   80e80:	f8747b01 	ldr	x1, [x24, x20, lsl #3]
   80e84:	aa1603e0 	mov	x0, x22
   80e88:	91000694 	add	x20, x20, #0x1
   80e8c:	97fffcd7 	bl	801e8 <strcat>
   80e90:	aa1503e1 	mov	x1, x21
   80e94:	aa1603e0 	mov	x0, x22
   80e98:	97fffcd4 	bl	801e8 <strcat>
   80e9c:	eb14027f 	cmp	x19, x20
   80ea0:	54ffff01 	b.ne	80e80 <cd+0x140>  // b.any
   80ea4:	f94017b6 	ldr	x22, [x29, #40]
   80ea8:	a943e7b8 	ldp	x24, x25, [x29, #56]
   80eac:	aa1703e0 	mov	x0, x23
   80eb0:	97fffe72 	bl	80878 <free>
   80eb4:	f94013b5 	ldr	x21, [x29, #32]
   80eb8:	f9401bb7 	ldr	x23, [x29, #48]
   80ebc:	a9407bfd 	ldp	x29, x30, [sp]
   80ec0:	a94153f3 	ldp	x19, x20, [sp, #16]
   80ec4:	912143ff 	add	sp, sp, #0x850
   80ec8:	d65f03c0 	ret
   80ecc:	f0000000 	adrp	x0, 83000 <fat32_open+0x62c>
   80ed0:	912f4000 	add	x0, x0, #0xbd0
   80ed4:	94000323 	bl	81b60 <kprintf>
   80ed8:	a9407bfd 	ldp	x29, x30, [sp]
   80edc:	a94153f3 	ldp	x19, x20, [sp, #16]
   80ee0:	912143ff 	add	sp, sp, #0x850
   80ee4:	d65f03c0 	ret
   80ee8:	90000021 	adrp	x1, 84000 <__func__.3144+0x458>
   80eec:	aa1303e0 	mov	x0, x19
   80ef0:	912c4021 	add	x1, x1, #0xb10
   80ef4:	97fffc71 	bl	800b8 <strcpy>
   80ef8:	17ffffa7 	b	80d94 <cd+0x54>
   80efc:	aa1303e1 	mov	x1, x19
   80f00:	f0000000 	adrp	x0, 83000 <fat32_open+0x62c>
   80f04:	9130e000 	add	x0, x0, #0xc38
   80f08:	94000316 	bl	81b60 <kprintf>
   80f0c:	f9401bb7 	ldr	x23, [x29, #48]
   80f10:	a9407bfd 	ldp	x29, x30, [sp]
   80f14:	a94153f3 	ldp	x19, x20, [sp, #16]
   80f18:	912143ff 	add	sp, sp, #0x850
   80f1c:	d65f03c0 	ret
   80f20:	f0000000 	adrp	x0, 83000 <fat32_open+0x62c>
   80f24:	aa1303e1 	mov	x1, x19
   80f28:	91300000 	add	x0, x0, #0xc00
   80f2c:	9400030d 	bl	81b60 <kprintf>
   80f30:	f9401bb7 	ldr	x23, [x29, #48]
   80f34:	17ffffe2 	b	80ebc <cd+0x17c>
   80f38:	90000020 	adrp	x0, 84000 <__func__.3144+0x458>
   80f3c:	aa1503e1 	mov	x1, x21
   80f40:	912c4000 	add	x0, x0, #0xb10
   80f44:	97fffc5d 	bl	800b8 <strcpy>
   80f48:	17ffffd9 	b	80eac <cd+0x16c>
   80f4c:	d503201f 	nop

0000000000080f50 <pwd>:
   80f50:	90000021 	adrp	x1, 84000 <__func__.3144+0x458>
   80f54:	90000020 	adrp	x0, 84000 <__func__.3144+0x458>
   80f58:	912c4021 	add	x1, x1, #0xb10
   80f5c:	9117e000 	add	x0, x0, #0x5f8
   80f60:	14000300 	b	81b60 <kprintf>
   80f64:	d503201f 	nop

0000000000080f68 <ls>:
   80f68:	d11b43ff 	sub	sp, sp, #0x6d0
   80f6c:	d2807fc2 	mov	x2, #0x3fe                 	// #1022
   80f70:	a9047bfd 	stp	x29, x30, [sp, #64]
   80f74:	910103fd 	add	x29, sp, #0x40
   80f78:	a90553f3 	stp	x19, x20, [sp, #80]
   80f7c:	f0000013 	adrp	x19, 83000 <fat32_open+0x62c>
   80f80:	a90763f7 	stp	x23, x24, [sp, #112]
   80f84:	aa0003f8 	mov	x24, x0
   80f88:	794f5260 	ldrh	w0, [x19, #1960]
   80f8c:	2a0103f4 	mov	w20, w1
   80f90:	a9065bf5 	stp	x21, x22, [sp, #96]
   80f94:	52800001 	mov	w1, #0x0                   	// #0
   80f98:	790523a0 	strh	w0, [x29, #656]
   80f9c:	910a4ba0 	add	x0, x29, #0x292
   80fa0:	97fffcde 	bl	80318 <memset>
   80fa4:	f0000015 	adrp	x21, 83000 <fat32_open+0x62c>
   80fa8:	913562a0 	add	x0, x21, #0xd58
   80fac:	7100069f 	cmp	w20, #0x1
   80fb0:	b9400000 	ldr	w0, [x0]
   80fb4:	b90083a0 	str	w0, [x29, #128]
   80fb8:	54000880 	b.eq	810c8 <ls+0x160>  // b.none
   80fbc:	71000a9f 	cmp	w20, #0x2
   80fc0:	540003a0 	b.eq	81034 <ls+0xcc>  // b.none
   80fc4:	34001ab4 	cbz	w20, 81318 <ls+0x3b0>
   80fc8:	910a43b7 	add	x23, x29, #0x290
   80fcc:	52800014 	mov	w20, #0x0                   	// #0
   80fd0:	90000036 	adrp	x22, 84000 <__func__.3144+0x458>
   80fd4:	aa1703e1 	mov	x1, x23
   80fd8:	f947a2d6 	ldr	x22, [x22, #3904]
   80fdc:	f94002c0 	ldr	x0, [x22]
   80fe0:	9400067d 	bl	829d4 <fat32_open>
   80fe4:	aa0003f7 	mov	x23, x0
   80fe8:	b40005c0 	cbz	x0, 810a0 <ls+0x138>
   80fec:	911ea273 	add	x19, x19, #0x7a8
   80ff0:	f0000001 	adrp	x1, 83000 <fat32_open+0x62c>
   80ff4:	91100273 	add	x19, x19, #0x400
   80ff8:	91324021 	add	x1, x1, #0xc90
   80ffc:	aa1303e0 	mov	x0, x19
   81000:	94000342 	bl	81d08 <__debug>
   81004:	394042e0 	ldrb	w0, [x23, #16]
   81008:	37200860 	tbnz	w0, #4, 81114 <ls+0x1ac>
   8100c:	d0000000 	adrp	x0, 83000 <fat32_open+0x62c>
   81010:	aa1803e1 	mov	x1, x24
   81014:	9132e000 	add	x0, x0, #0xcb8
   81018:	940002d2 	bl	81b60 <kprintf>
   8101c:	a9447bfd 	ldp	x29, x30, [sp, #64]
   81020:	a94553f3 	ldp	x19, x20, [sp, #80]
   81024:	a9465bf5 	ldp	x21, x22, [sp, #96]
   81028:	a94763f7 	ldp	x23, x24, [sp, #112]
   8102c:	911b43ff 	add	sp, sp, #0x6d0
   81030:	d65f03c0 	ret
   81034:	d0000014 	adrp	x20, 83000 <fat32_open+0x62c>
   81038:	9131a294 	add	x20, x20, #0xc68
   8103c:	aa1803e1 	mov	x1, x24
   81040:	aa1403e0 	mov	x0, x20
   81044:	91010316 	add	x22, x24, #0x40
   81048:	97fffc0a 	bl	80070 <strcmp>
   8104c:	350014c0 	cbnz	w0, 812e4 <ls+0x37c>
   81050:	39410300 	ldrb	w0, [x24, #64]
   81054:	910a43b7 	add	x23, x29, #0x290
   81058:	7100bc1f 	cmp	w0, #0x2f
   8105c:	540000a0 	b.eq	81070 <ls+0x108>  // b.none
   81060:	f0000001 	adrp	x1, 84000 <__func__.3144+0x458>
   81064:	aa1703e0 	mov	x0, x23
   81068:	912c4021 	add	x1, x1, #0xb10
   8106c:	97fffc13 	bl	800b8 <strcpy>
   81070:	aa1603e1 	mov	x1, x22
   81074:	aa1603f8 	mov	x24, x22
   81078:	f0000016 	adrp	x22, 84000 <__func__.3144+0x458>
   8107c:	aa1703e0 	mov	x0, x23
   81080:	97fffc5a 	bl	801e8 <strcat>
   81084:	52800034 	mov	w20, #0x1                   	// #1
   81088:	f947a2d6 	ldr	x22, [x22, #3904]
   8108c:	aa1703e1 	mov	x1, x23
   81090:	f94002c0 	ldr	x0, [x22]
   81094:	94000650 	bl	829d4 <fat32_open>
   81098:	aa0003f7 	mov	x23, x0
   8109c:	b5fffa80 	cbnz	x0, 80fec <ls+0x84>
   810a0:	aa1803e1 	mov	x1, x24
   810a4:	d0000000 	adrp	x0, 83000 <fat32_open+0x62c>
   810a8:	9131c000 	add	x0, x0, #0xc70
   810ac:	940002ad 	bl	81b60 <kprintf>
   810b0:	a9447bfd 	ldp	x29, x30, [sp, #64]
   810b4:	a94553f3 	ldp	x19, x20, [sp, #80]
   810b8:	a9465bf5 	ldp	x21, x22, [sp, #96]
   810bc:	a94763f7 	ldp	x23, x24, [sp, #112]
   810c0:	911b43ff 	add	sp, sp, #0x6d0
   810c4:	d65f03c0 	ret
   810c8:	d0000000 	adrp	x0, 83000 <fat32_open+0x62c>
   810cc:	aa1803e1 	mov	x1, x24
   810d0:	9131a000 	add	x0, x0, #0xc68
   810d4:	910a43b7 	add	x23, x29, #0x290
   810d8:	97fffbe6 	bl	80070 <strcmp>
   810dc:	34fff7a0 	cbz	w0, 80fd0 <ls+0x68>
   810e0:	39400300 	ldrb	w0, [x24]
   810e4:	910a43b7 	add	x23, x29, #0x290
   810e8:	7100bc1f 	cmp	w0, #0x2f
   810ec:	540000a0 	b.eq	81100 <ls+0x198>  // b.none
   810f0:	f0000001 	adrp	x1, 84000 <__func__.3144+0x458>
   810f4:	aa1703e0 	mov	x0, x23
   810f8:	912c4021 	add	x1, x1, #0xb10
   810fc:	97fffc3b 	bl	801e8 <strcat>
   81100:	aa1803e1 	mov	x1, x24
   81104:	aa1703e0 	mov	x0, x23
   81108:	52800014 	mov	w20, #0x0                   	// #0
   8110c:	97fffc37 	bl	801e8 <strcat>
   81110:	17ffffb0 	b	80fd0 <ls+0x68>
   81114:	b94002e2 	ldr	w2, [x23]
   81118:	d0000001 	adrp	x1, 83000 <fat32_open+0x62c>
   8111c:	aa1303e0 	mov	x0, x19
   81120:	91336021 	add	x1, x1, #0xcd8
   81124:	940002f9 	bl	81d08 <__debug>
   81128:	b94002e1 	ldr	w1, [x23]
   8112c:	910223a2 	add	x2, x29, #0x88
   81130:	f94002c0 	ldr	x0, [x22]
   81134:	940004e1 	bl	824b8 <fat32_read_chain>
   81138:	d345fc18 	lsr	x24, x0, #5
   8113c:	d0000001 	adrp	x1, 83000 <fat32_open+0x62c>
   81140:	aa1803e2 	mov	x2, x24
   81144:	9133c021 	add	x1, x1, #0xcf0
   81148:	aa1303e0 	mov	x0, x19
   8114c:	940002ef 	bl	81d08 <__debug>
   81150:	b4000958 	cbz	x24, 81278 <ls+0x310>
   81154:	a9046bb9 	stp	x25, x26, [x29, #64]
   81158:	910243b6 	add	x22, x29, #0x90
   8115c:	a90573bb 	stp	x27, x28, [x29, #80]
   81160:	d000001a 	adrp	x26, 83000 <fat32_open+0x62c>
   81164:	529999bb 	mov	w27, #0xcccd                	// #52429
   81168:	910203b9 	add	x25, x29, #0x80
   8116c:	9134435a 	add	x26, x26, #0xd10
   81170:	913562b5 	add	x21, x21, #0xd58
   81174:	d2800013 	mov	x19, #0x0                   	// #0
   81178:	72b9999b 	movk	w27, #0xcccc, lsl #16
   8117c:	d503201f 	nop
   81180:	f94047a0 	ldr	x0, [x29, #136]
   81184:	aa1603e1 	mov	x1, x22
   81188:	8b131400 	add	x0, x0, x19, lsl #5
   8118c:	9400054e 	bl	826c4 <fat32_parse_name>
   81190:	394243a1 	ldrb	w1, [x29, #144]
   81194:	8b130013 	add	x19, x0, x19
   81198:	34000a21 	cbz	w1, 812dc <ls+0x374>
   8119c:	f94047a1 	ldr	x1, [x29, #136]
   811a0:	d37bea66 	lsl	x6, x19, #5
   811a4:	91000673 	add	x19, x19, #0x1
   811a8:	8b060020 	add	x0, x1, x6
   811ac:	39402c03 	ldrb	w3, [x0, #11]
   811b0:	121f0064 	and	w4, w3, #0x2
   811b4:	35000054 	cbnz	w20, 811bc <ls+0x254>
   811b8:	35000584 	cbnz	w4, 81268 <ls+0x300>
   811bc:	79401c05 	ldrh	w5, [x0, #14]
   811c0:	79402002 	ldrh	w2, [x0, #16]
   811c4:	79402c08 	ldrh	w8, [x0, #22]
   811c8:	7940301c 	ldrh	w28, [x0, #24]
   811cc:	37200663 	tbnz	w3, #4, 81298 <ls+0x330>
   811d0:	37000063 	tbnz	w3, #0, 811dc <ls+0x274>
   811d4:	52800ee1 	mov	w1, #0x77                  	// #119
   811d8:	390207a1 	strb	w1, [x29, #129]
   811dc:	34000064 	cbz	w4, 811e8 <ls+0x280>
   811e0:	52800d01 	mov	w1, #0x68                  	// #104
   811e4:	39020ba1 	strb	w1, [x29, #130]
   811e8:	39403401 	ldrb	w1, [x0, #13]
   811ec:	531f10a7 	ubfiz	w7, w5, #1, #5
   811f0:	f9001ff6 	str	x22, [sp, #56]
   811f4:	53097c44 	lsr	w4, w2, #9
   811f8:	d34528a6 	ubfx	x6, x5, #5, #6
   811fc:	12001043 	and	w3, w2, #0x1f
   81200:	b9401c09 	ldr	w9, [x0, #28]
   81204:	530b7ca5 	lsr	w5, w5, #11
   81208:	9bbb7c20 	umull	x0, w1, w27
   8120c:	b90033e9 	str	w9, [sp, #48]
   81210:	531f1101 	ubfiz	w1, w8, #1, #5
   81214:	d3452909 	ubfx	x9, x8, #5, #6
   81218:	530b7d08 	lsr	w8, w8, #11
   8121c:	b90023e9 	str	w9, [sp, #32]
   81220:	d363fc00 	lsr	x0, x0, #35
   81224:	b9001be8 	str	w8, [sp, #24]
   81228:	0b0000e7 	add	w7, w7, w0
   8122c:	53097f80 	lsr	w0, w28, #9
   81230:	b9002be1 	str	w1, [sp, #40]
   81234:	111ef084 	add	w4, w4, #0x7bc
   81238:	b90013e0 	str	w0, [sp, #16]
   8123c:	d3452042 	ubfx	x2, x2, #5, #4
   81240:	12001380 	and	w0, w28, #0x1f
   81244:	d345239c 	ubfx	x28, x28, #5, #4
   81248:	b90003fc 	str	w28, [sp]
   8124c:	aa1903e1 	mov	x1, x25
   81250:	b9000be0 	str	w0, [sp, #8]
   81254:	aa1a03e0 	mov	x0, x26
   81258:	94000242 	bl	81b60 <kprintf>
   8125c:	aa1503e1 	mov	x1, x21
   81260:	aa1903e0 	mov	x0, x25
   81264:	97fffb95 	bl	800b8 <strcpy>
   81268:	eb18027f 	cmp	x19, x24
   8126c:	54fff8a3 	b.cc	81180 <ls+0x218>  // b.lo, b.ul, b.last
   81270:	a9446bb9 	ldp	x25, x26, [x29, #64]
   81274:	a94573bb 	ldp	x27, x28, [x29, #80]
   81278:	aa1703e0 	mov	x0, x23
   8127c:	97fffd7f 	bl	80878 <free>
   81280:	a9447bfd 	ldp	x29, x30, [sp, #64]
   81284:	a94553f3 	ldp	x19, x20, [sp, #80]
   81288:	a9465bf5 	ldp	x21, x22, [sp, #96]
   8128c:	a94763f7 	ldp	x23, x24, [sp, #112]
   81290:	911b43ff 	add	sp, sp, #0x6d0
   81294:	d65f03c0 	ret
   81298:	b90067a4 	str	w4, [x29, #100]
   8129c:	d0000001 	adrp	x1, 83000 <fat32_open+0x62c>
   812a0:	f90037a6 	str	x6, [x29, #104]
   812a4:	91314021 	add	x1, x1, #0xc50
   812a8:	290e23a3 	stp	w3, w8, [x29, #112]
   812ac:	aa1603e0 	mov	x0, x22
   812b0:	290f17a2 	stp	w2, w5, [x29, #120]
   812b4:	97fffbcd 	bl	801e8 <strcat>
   812b8:	f94037a6 	ldr	x6, [x29, #104]
   812bc:	52800c81 	mov	w1, #0x64                  	// #100
   812c0:	f94047a0 	ldr	x0, [x29, #136]
   812c4:	390203a1 	strb	w1, [x29, #128]
   812c8:	b94067a4 	ldr	w4, [x29, #100]
   812cc:	8b060000 	add	x0, x0, x6
   812d0:	294e23a3 	ldp	w3, w8, [x29, #112]
   812d4:	294f17a2 	ldp	w2, w5, [x29, #120]
   812d8:	17ffffbe 	b	811d0 <ls+0x268>
   812dc:	91000673 	add	x19, x19, #0x1
   812e0:	17ffffe2 	b	81268 <ls+0x300>
   812e4:	aa1603e1 	mov	x1, x22
   812e8:	aa1403e0 	mov	x0, x20
   812ec:	97fffb61 	bl	80070 <strcmp>
   812f0:	350002c0 	cbnz	w0, 81348 <ls+0x3e0>
   812f4:	39400300 	ldrb	w0, [x24]
   812f8:	910a43b7 	add	x23, x29, #0x290
   812fc:	7100bc1f 	cmp	w0, #0x2f
   81300:	540001a1 	b.ne	81334 <ls+0x3cc>  // b.any
   81304:	aa1803e1 	mov	x1, x24
   81308:	aa1703e0 	mov	x0, x23
   8130c:	52800034 	mov	w20, #0x1                   	// #1
   81310:	97fffbb6 	bl	801e8 <strcat>
   81314:	17ffff2f 	b	80fd0 <ls+0x68>
   81318:	910a43b7 	add	x23, x29, #0x290
   8131c:	f0000018 	adrp	x24, 84000 <__func__.3144+0x458>
   81320:	912c4318 	add	x24, x24, #0xb10
   81324:	aa1703e0 	mov	x0, x23
   81328:	aa1803e1 	mov	x1, x24
   8132c:	97fffbaf 	bl	801e8 <strcat>
   81330:	17ffff28 	b	80fd0 <ls+0x68>
   81334:	f0000001 	adrp	x1, 84000 <__func__.3144+0x458>
   81338:	aa1703e0 	mov	x0, x23
   8133c:	912c4021 	add	x1, x1, #0xb10
   81340:	97fffb5e 	bl	800b8 <strcpy>
   81344:	17fffff0 	b	81304 <ls+0x39c>
   81348:	d0000000 	adrp	x0, 83000 <fat32_open+0x62c>
   8134c:	912f4000 	add	x0, x0, #0xbd0
   81350:	94000204 	bl	81b60 <kprintf>
   81354:	17ffff32 	b	8101c <ls+0xb4>

0000000000081358 <display_banner_short>:
   81358:	a9bf7bfd 	stp	x29, x30, [sp, #-16]!
   8135c:	d0000000 	adrp	x0, 83000 <fat32_open+0x62c>
   81360:	91358000 	add	x0, x0, #0xd60
   81364:	910003fd 	mov	x29, sp
   81368:	940001fe 	bl	81b60 <kprintf>
   8136c:	d0000000 	adrp	x0, 83000 <fat32_open+0x62c>
   81370:	91374000 	add	x0, x0, #0xdd0
   81374:	940001fb 	bl	81b60 <kprintf>
   81378:	d0000000 	adrp	x0, 83000 <fat32_open+0x62c>
   8137c:	91390000 	add	x0, x0, #0xe40
   81380:	940001f8 	bl	81b60 <kprintf>
   81384:	d0000000 	adrp	x0, 83000 <fat32_open+0x62c>
   81388:	913aa000 	add	x0, x0, #0xea8
   8138c:	940001f5 	bl	81b60 <kprintf>
   81390:	d0000000 	adrp	x0, 83000 <fat32_open+0x62c>
   81394:	913c4000 	add	x0, x0, #0xf10
   81398:	940001f2 	bl	81b60 <kprintf>
   8139c:	a8c17bfd 	ldp	x29, x30, [sp], #16
   813a0:	d0000000 	adrp	x0, 83000 <fat32_open+0x62c>
   813a4:	913e0000 	add	x0, x0, #0xf80
   813a8:	140001ee 	b	81b60 <kprintf>
   813ac:	d503201f 	nop

00000000000813b0 <display_banner>:
   813b0:	a9bf7bfd 	stp	x29, x30, [sp, #-16]!
   813b4:	d0000000 	adrp	x0, 83000 <fat32_open+0x62c>
   813b8:	913fa000 	add	x0, x0, #0xfe8
   813bc:	910003fd 	mov	x29, sp
   813c0:	940001e8 	bl	81b60 <kprintf>
   813c4:	f0000000 	adrp	x0, 84000 <__func__.3144+0x458>
   813c8:	9102c000 	add	x0, x0, #0xb0
   813cc:	940001e5 	bl	81b60 <kprintf>
   813d0:	f0000000 	adrp	x0, 84000 <__func__.3144+0x458>
   813d4:	91060000 	add	x0, x0, #0x180
   813d8:	940001e2 	bl	81b60 <kprintf>
   813dc:	f0000000 	adrp	x0, 84000 <__func__.3144+0x458>
   813e0:	91092000 	add	x0, x0, #0x248
   813e4:	940001df 	bl	81b60 <kprintf>
   813e8:	f0000000 	adrp	x0, 84000 <__func__.3144+0x458>
   813ec:	910c4000 	add	x0, x0, #0x310
   813f0:	940001dc 	bl	81b60 <kprintf>
   813f4:	a8c17bfd 	ldp	x29, x30, [sp], #16
   813f8:	f0000000 	adrp	x0, 84000 <__func__.3144+0x458>
   813fc:	910fc000 	add	x0, x0, #0x3f0
   81400:	140001d8 	b	81b60 <kprintf>
   81404:	d503201f 	nop

0000000000081408 <test_malloc>:
   81408:	a9bd7bfd 	stp	x29, x30, [sp, #-48]!
   8140c:	d2803f80 	mov	x0, #0x1fc                 	// #508
   81410:	910003fd 	mov	x29, sp
   81414:	a90153f3 	stp	x19, x20, [sp, #16]
   81418:	f90013f5 	str	x21, [sp, #32]
   8141c:	97fffcd1 	bl	80760 <malloc>
   81420:	aa0003f3 	mov	x19, x0
   81424:	d2800000 	mov	x0, #0x0                   	// #0
   81428:	b8207a60 	str	w0, [x19, x0, lsl #2]
   8142c:	91000400 	add	x0, x0, #0x1
   81430:	f101fc1f 	cmp	x0, #0x7f
   81434:	54ffffa1 	b.ne	81428 <test_malloc+0x20>  // b.any
   81438:	d2803f00 	mov	x0, #0x1f8                 	// #504
   8143c:	97fffcc9 	bl	80760 <malloc>
   81440:	aa0003f4 	mov	x20, x0
   81444:	aa0003e1 	mov	x1, x0
   81448:	52800fc0 	mov	w0, #0x7e                  	// #126
   8144c:	d503201f 	nop
   81450:	b8004420 	str	w0, [x1], #4
   81454:	71000400 	subs	w0, w0, #0x1
   81458:	54ffffc1 	b.ne	81450 <test_malloc+0x48>  // b.any
   8145c:	aa1303e0 	mov	x0, x19
   81460:	97fffd06 	bl	80878 <free>
   81464:	d2801680 	mov	x0, #0xb4                  	// #180
   81468:	97fffcbe 	bl	80760 <malloc>
   8146c:	aa0003f5 	mov	x21, x0
   81470:	aa1403e0 	mov	x0, x20
   81474:	97fffd01 	bl	80878 <free>
   81478:	d2801780 	mov	x0, #0xbc                  	// #188
   8147c:	97fffcb9 	bl	80760 <malloc>
   81480:	aa0003f3 	mov	x19, x0
   81484:	aa1503e0 	mov	x0, x21
   81488:	97fffcfc 	bl	80878 <free>
   8148c:	f94013f5 	ldr	x21, [sp, #32]
   81490:	aa1303e0 	mov	x0, x19
   81494:	a94153f3 	ldp	x19, x20, [sp, #16]
   81498:	a8c37bfd 	ldp	x29, x30, [sp], #48
   8149c:	17fffcf7 	b	80878 <free>

00000000000814a0 <exe_cmd>:
   814a0:	a9be7bfd 	stp	x29, x30, [sp, #-32]!
   814a4:	f0000001 	adrp	x1, 84000 <__func__.3144+0x458>
   814a8:	9112e021 	add	x1, x1, #0x4b8
   814ac:	910003fd 	mov	x29, sp
   814b0:	f9000bf3 	str	x19, [sp, #16]
   814b4:	aa0003f3 	mov	x19, x0
   814b8:	97fffaee 	bl	80070 <strcmp>
   814bc:	34000660 	cbz	w0, 81588 <exe_cmd+0xe8>
   814c0:	f0000001 	adrp	x1, 84000 <__func__.3144+0x458>
   814c4:	aa1303e0 	mov	x0, x19
   814c8:	91130021 	add	x1, x1, #0x4c0
   814cc:	97fffae9 	bl	80070 <strcmp>
   814d0:	34000520 	cbz	w0, 81574 <exe_cmd+0xd4>
   814d4:	f0000001 	adrp	x1, 84000 <__func__.3144+0x458>
   814d8:	aa1303e0 	mov	x0, x19
   814dc:	91132021 	add	x1, x1, #0x4c8
   814e0:	97fffae4 	bl	80070 <strcmp>
   814e4:	340006e0 	cbz	w0, 815c0 <exe_cmd+0x120>
   814e8:	f0000001 	adrp	x1, 84000 <__func__.3144+0x458>
   814ec:	aa1303e0 	mov	x0, x19
   814f0:	91134021 	add	x1, x1, #0x4d0
   814f4:	97fffadf 	bl	80070 <strcmp>
   814f8:	34000740 	cbz	w0, 815e0 <exe_cmd+0x140>
   814fc:	f0000001 	adrp	x1, 84000 <__func__.3144+0x458>
   81500:	aa1303e0 	mov	x0, x19
   81504:	91136021 	add	x1, x1, #0x4d8
   81508:	97fffada 	bl	80070 <strcmp>
   8150c:	340004e0 	cbz	w0, 815a8 <exe_cmd+0x108>
   81510:	f0000001 	adrp	x1, 84000 <__func__.3144+0x458>
   81514:	aa1303e0 	mov	x0, x19
   81518:	91138021 	add	x1, x1, #0x4e0
   8151c:	97fffad5 	bl	80070 <strcmp>
   81520:	34000700 	cbz	w0, 81600 <exe_cmd+0x160>
   81524:	f0000001 	adrp	x1, 84000 <__func__.3144+0x458>
   81528:	aa1303e0 	mov	x0, x19
   8152c:	9113a021 	add	x1, x1, #0x4e8
   81530:	97fffad0 	bl	80070 <strcmp>
   81534:	340007c0 	cbz	w0, 8162c <exe_cmd+0x18c>
   81538:	f0000001 	adrp	x1, 84000 <__func__.3144+0x458>
   8153c:	aa1303e0 	mov	x0, x19
   81540:	91170021 	add	x1, x1, #0x5c0
   81544:	97fffacb 	bl	80070 <strcmp>
   81548:	34000ba0 	cbz	w0, 816bc <exe_cmd+0x21c>
   8154c:	f0000001 	adrp	x1, 84000 <__func__.3144+0x458>
   81550:	aa1303e0 	mov	x0, x19
   81554:	91172021 	add	x1, x1, #0x5c8
   81558:	97fffac6 	bl	80070 <strcmp>
   8155c:	340005c0 	cbz	w0, 81614 <exe_cmd+0x174>
   81560:	f0000000 	adrp	x0, 84000 <__func__.3144+0x458>
   81564:	aa1303e1 	mov	x1, x19
   81568:	9117a000 	add	x0, x0, #0x5e8
   8156c:	9400017d 	bl	81b60 <kprintf>
   81570:	14000002 	b	81578 <exe_cmd+0xd8>
   81574:	9400028d 	bl	81fa8 <atag_display>
   81578:	52800000 	mov	w0, #0x0                   	// #0
   8157c:	f9400bf3 	ldr	x19, [sp, #16]
   81580:	a8c27bfd 	ldp	x29, x30, [sp], #32
   81584:	d65f03c0 	ret
   81588:	b9500661 	ldr	w1, [x19, #4100]
   8158c:	91010260 	add	x0, x19, #0x40
   81590:	51000421 	sub	w1, w1, #0x1
   81594:	97fffd65 	bl	80b28 <echo>
   81598:	52800000 	mov	w0, #0x0                   	// #0
   8159c:	f9400bf3 	ldr	x19, [sp, #16]
   815a0:	a8c27bfd 	ldp	x29, x30, [sp], #32
   815a4:	d65f03c0 	ret
   815a8:	f0000001 	adrp	x1, 84000 <__func__.3144+0x458>
   815ac:	f0000000 	adrp	x0, 84000 <__func__.3144+0x458>
   815b0:	912c4021 	add	x1, x1, #0xb10
   815b4:	9117e000 	add	x0, x0, #0x5f8
   815b8:	9400016a 	bl	81b60 <kprintf>
   815bc:	17ffffef 	b	81578 <exe_cmd+0xd8>
   815c0:	b9500661 	ldr	w1, [x19, #4100]
   815c4:	91010260 	add	x0, x19, #0x40
   815c8:	51000421 	sub	w1, w1, #0x1
   815cc:	97fffddd 	bl	80d40 <cd>
   815d0:	52800000 	mov	w0, #0x0                   	// #0
   815d4:	f9400bf3 	ldr	x19, [sp, #16]
   815d8:	a8c27bfd 	ldp	x29, x30, [sp], #32
   815dc:	d65f03c0 	ret
   815e0:	b9500661 	ldr	w1, [x19, #4100]
   815e4:	91010260 	add	x0, x19, #0x40
   815e8:	51000421 	sub	w1, w1, #0x1
   815ec:	97fffd71 	bl	80bb0 <cat>
   815f0:	52800000 	mov	w0, #0x0                   	// #0
   815f4:	f9400bf3 	ldr	x19, [sp, #16]
   815f8:	a8c27bfd 	ldp	x29, x30, [sp], #32
   815fc:	d65f03c0 	ret
   81600:	b9500661 	ldr	w1, [x19, #4100]
   81604:	91010260 	add	x0, x19, #0x40
   81608:	51000421 	sub	w1, w1, #0x1
   8160c:	97fffe57 	bl	80f68 <ls>
   81610:	17ffffda 	b	81578 <exe_cmd+0xd8>
   81614:	940006f8 	bl	831f4 <sd_init>
   81618:	34fffb00 	cbz	w0, 81578 <exe_cmd+0xd8>
   8161c:	f0000000 	adrp	x0, 84000 <__func__.3144+0x458>
   81620:	91174000 	add	x0, x0, #0x5d0
   81624:	9400014f 	bl	81b60 <kprintf>
   81628:	17ffffd4 	b	81578 <exe_cmd+0xd8>
   8162c:	f0000013 	adrp	x19, 84000 <__func__.3144+0x458>
   81630:	f0000000 	adrp	x0, 84000 <__func__.3144+0x458>
   81634:	9113e000 	add	x0, x0, #0x4f8
   81638:	9400014a 	bl	81b60 <kprintf>
   8163c:	f947a273 	ldr	x19, [x19, #3904]
   81640:	f0000000 	adrp	x0, 84000 <__func__.3144+0x458>
   81644:	91144000 	add	x0, x0, #0x510
   81648:	f9400261 	ldr	x1, [x19]
   8164c:	79414021 	ldrh	w1, [x1, #160]
   81650:	94000144 	bl	81b60 <kprintf>
   81654:	f9400261 	ldr	x1, [x19]
   81658:	f0000000 	adrp	x0, 84000 <__func__.3144+0x458>
   8165c:	9114a000 	add	x0, x0, #0x528
   81660:	39428821 	ldrb	w1, [x1, #162]
   81664:	9400013f 	bl	81b60 <kprintf>
   81668:	f9400261 	ldr	x1, [x19]
   8166c:	f0000000 	adrp	x0, 84000 <__func__.3144+0x458>
   81670:	91152000 	add	x0, x0, #0x548
   81674:	b940a421 	ldr	w1, [x1, #164]
   81678:	9400013a 	bl	81b60 <kprintf>
   8167c:	f9400261 	ldr	x1, [x19]
   81680:	f0000000 	adrp	x0, 84000 <__func__.3144+0x458>
   81684:	91158000 	add	x0, x0, #0x560
   81688:	b940a821 	ldr	w1, [x1, #168]
   8168c:	94000135 	bl	81b60 <kprintf>
   81690:	f9400261 	ldr	x1, [x19]
   81694:	f0000000 	adrp	x0, 84000 <__func__.3144+0x458>
   81698:	9115e000 	add	x0, x0, #0x578
   8169c:	b940ac21 	ldr	w1, [x1, #172]
   816a0:	94000130 	bl	81b60 <kprintf>
   816a4:	f9400261 	ldr	x1, [x19]
   816a8:	f0000000 	adrp	x0, 84000 <__func__.3144+0x458>
   816ac:	91166000 	add	x0, x0, #0x598
   816b0:	b940b021 	ldr	w1, [x1, #176]
   816b4:	9400012b 	bl	81b60 <kprintf>
   816b8:	17ffffb0 	b	81578 <exe_cmd+0xd8>
   816bc:	97ffff53 	bl	81408 <test_malloc>
   816c0:	17ffffae 	b	81578 <exe_cmd+0xd8>
   816c4:	d503201f 	nop

00000000000816c8 <shell_loop>:
   816c8:	d2828810 	mov	x16, #0x1440                	// #5184
   816cc:	cb3063ff 	sub	sp, sp, x16
   816d0:	d2800801 	mov	x1, #0x40                  	// #64
   816d4:	f0000000 	adrp	x0, 84000 <__func__.3144+0x458>
   816d8:	91180000 	add	x0, x0, #0x600
   816dc:	a9007bfd 	stp	x29, x30, [sp]
   816e0:	910003fd 	mov	x29, sp
   816e4:	a90153f3 	stp	x19, x20, [sp, #16]
   816e8:	9100e3b3 	add	x19, x29, #0x38
   816ec:	a9025bf5 	stp	x21, x22, [sp, #32]
   816f0:	9110e3b4 	add	x20, x29, #0x438
   816f4:	f90a1fa1 	str	x1, [x29, #5176]
   816f8:	9400011a 	bl	81b60 <kprintf>
   816fc:	97ffff2d 	bl	813b0 <display_banner>
   81700:	f0000016 	adrp	x22, 84000 <__func__.3144+0x458>
   81704:	f0000015 	adrp	x21, 84000 <__func__.3144+0x458>
   81708:	f0000000 	adrp	x0, 84000 <__func__.3144+0x458>
   8170c:	912c42d6 	add	x22, x22, #0xb10
   81710:	9118a2b5 	add	x21, x21, #0x628
   81714:	911c8000 	add	x0, x0, #0x720
   81718:	94000112 	bl	81b60 <kprintf>
   8171c:	d503201f 	nop
   81720:	aa1603e1 	mov	x1, x22
   81724:	aa1503e0 	mov	x0, x21
   81728:	9400010e 	bl	81b60 <kprintf>
   8172c:	aa1303e0 	mov	x0, x19
   81730:	97fffc9a 	bl	80998 <read_cmd>
   81734:	b4ffff60 	cbz	x0, 81720 <shell_loop+0x58>
   81738:	aa1303e1 	mov	x1, x19
   8173c:	aa1403e0 	mov	x0, x20
   81740:	97fffcd6 	bl	80a98 <parse_cmd>
   81744:	7100001f 	cmp	w0, #0x0
   81748:	54fffecd 	b.le	81720 <shell_loop+0x58>
   8174c:	aa1403e0 	mov	x0, x20
   81750:	97ffff54 	bl	814a0 <exe_cmd>
   81754:	aa1603e1 	mov	x1, x22
   81758:	aa1503e0 	mov	x0, x21
   8175c:	94000101 	bl	81b60 <kprintf>
   81760:	aa1303e0 	mov	x0, x19
   81764:	97fffc8d 	bl	80998 <read_cmd>
   81768:	b5fffe80 	cbnz	x0, 81738 <shell_loop+0x70>
   8176c:	17ffffed 	b	81720 <shell_loop+0x58>

0000000000081770 <current_time>:
   81770:	d2860102 	mov	x2, #0x3008                	// #12296
   81774:	d2860083 	mov	x3, #0x3004                	// #12292
   81778:	f2a7e002 	movk	x2, #0x3f00, lsl #16
   8177c:	f2a7e003 	movk	x3, #0x3f00, lsl #16
   81780:	b9400041 	ldr	w1, [x2]
   81784:	b9400064 	ldr	w4, [x3]
   81788:	b9400042 	ldr	w2, [x2]
   8178c:	2a0103e0 	mov	w0, w1
   81790:	6b02003f 	cmp	w1, w2
   81794:	540000c0 	b.eq	817ac <current_time+0x3c>  // b.none
   81798:	b9400061 	ldr	w1, [x3]
   8179c:	91000400 	add	x0, x0, #0x1
   817a0:	2a0103e1 	mov	w1, w1
   817a4:	8b008020 	add	x0, x1, x0, lsl #32
   817a8:	d65f03c0 	ret
   817ac:	2a0403e4 	mov	w4, w4
   817b0:	8b008080 	add	x0, x4, x0, lsl #32
   817b4:	d65f03c0 	ret

00000000000817b8 <spin_sleep_us>:
   817b8:	d2860103 	mov	x3, #0x3008                	// #12296
   817bc:	d2860084 	mov	x4, #0x3004                	// #12292
   817c0:	f2a7e003 	movk	x3, #0x3f00, lsl #16
   817c4:	f2a7e004 	movk	x4, #0x3f00, lsl #16
   817c8:	b9400061 	ldr	w1, [x3]
   817cc:	b9400085 	ldr	w5, [x4]
   817d0:	b9400063 	ldr	w3, [x3]
   817d4:	2a0103e2 	mov	w2, w1
   817d8:	6b03003f 	cmp	w1, w3
   817dc:	54000340 	b.eq	81844 <spin_sleep_us+0x8c>  // b.none
   817e0:	b9400081 	ldr	w1, [x4]
   817e4:	91000442 	add	x2, x2, #0x1
   817e8:	2a0103e1 	mov	w1, w1
   817ec:	8b028022 	add	x2, x1, x2, lsl #32
   817f0:	d2860104 	mov	x4, #0x3008                	// #12296
   817f4:	d2860086 	mov	x6, #0x3004                	// #12292
   817f8:	f2a7e004 	movk	x4, #0x3f00, lsl #16
   817fc:	f2a7e006 	movk	x6, #0x3f00, lsl #16
   81800:	b9400083 	ldr	w3, [x4]
   81804:	b94000c7 	ldr	w7, [x6]
   81808:	b9400081 	ldr	w1, [x4]
   8180c:	2a0303e5 	mov	w5, w3
   81810:	6b01007f 	cmp	w3, w1
   81814:	910004a1 	add	x1, x5, #0x1
   81818:	54000100 	b.eq	81838 <spin_sleep_us+0x80>  // b.none
   8181c:	b94000c3 	ldr	w3, [x6]
   81820:	2a0303e3 	mov	w3, w3
   81824:	8b018061 	add	x1, x3, x1, lsl #32
   81828:	cb020021 	sub	x1, x1, x2
   8182c:	eb00003f 	cmp	x1, x0
   81830:	54fffe89 	b.ls	81800 <spin_sleep_us+0x48>  // b.plast
   81834:	d65f03c0 	ret
   81838:	2a0703e1 	mov	w1, w7
   8183c:	8b058021 	add	x1, x1, x5, lsl #32
   81840:	17fffffa 	b	81828 <spin_sleep_us+0x70>
   81844:	2a0503e5 	mov	w5, w5
   81848:	8b0280a2 	add	x2, x5, x2, lsl #32
   8184c:	17ffffe9 	b	817f0 <spin_sleep_us+0x38>

0000000000081850 <wait_micros>:
   81850:	2a0003e0 	mov	w0, w0
   81854:	17ffffd9 	b	817b8 <spin_sleep_us>

0000000000081858 <getDigit.constprop.0>:
   81858:	f100241f 	cmp	x0, #0x9
   8185c:	54000088 	b.hi	8186c <getDigit.constprop.0+0x14>  // b.pmore
   81860:	1100c000 	add	w0, w0, #0x30
   81864:	12001c00 	and	w0, w0, #0xff
   81868:	d65f03c0 	ret
   8186c:	a9bd7bfd 	stp	x29, x30, [sp, #-48]!
   81870:	910003fd 	mov	x29, sp
   81874:	a90153f3 	stp	x19, x20, [sp, #16]
   81878:	b202e7f4 	mov	x20, #0xcccccccccccccccc    	// #-3689348814741910324
   8187c:	f29999b4 	movk	x20, #0xcccd
   81880:	a9025bf5 	stp	x21, x22, [sp, #32]
   81884:	aa0203f5 	mov	x21, x2
   81888:	aa0103f6 	mov	x22, x1
   8188c:	9bd47c14 	umulh	x20, x0, x20
   81890:	aa0003f3 	mov	x19, x0
   81894:	d343fe94 	lsr	x20, x20, #3
   81898:	aa1403e0 	mov	x0, x20
   8189c:	97ffffef 	bl	81858 <getDigit.constprop.0>
   818a0:	f94002a1 	ldr	x1, [x21]
   818a4:	8b140a94 	add	x20, x20, x20, lsl #2
   818a8:	cb140673 	sub	x19, x19, x20, lsl #1
   818ac:	38216ac0 	strb	w0, [x22, x1]
   818b0:	1100c273 	add	w19, w19, #0x30
   818b4:	12001e60 	and	w0, w19, #0xff
   818b8:	f94002a1 	ldr	x1, [x21]
   818bc:	a94153f3 	ldp	x19, x20, [sp, #16]
   818c0:	91000421 	add	x1, x1, #0x1
   818c4:	f90002a1 	str	x1, [x21]
   818c8:	a9425bf5 	ldp	x21, x22, [sp, #32]
   818cc:	a8c37bfd 	ldp	x29, x30, [sp], #48
   818d0:	d65f03c0 	ret
   818d4:	d503201f 	nop

00000000000818d8 <__kprintf>:
   818d8:	a9b77bfd 	stp	x29, x30, [sp, #-144]!
   818dc:	910003fd 	mov	x29, sp
   818e0:	a9025bf5 	stp	x21, x22, [sp, #32]
   818e4:	9101a3b5 	add	x21, x29, #0x68
   818e8:	a90363f7 	stp	x23, x24, [sp, #48]
   818ec:	b9401837 	ldr	w23, [x1, #24]
   818f0:	a9406036 	ldp	x22, x24, [x1]
   818f4:	a90153f3 	stp	x19, x20, [sp, #16]
   818f8:	a90573fb 	stp	x27, x28, [sp, #80]
   818fc:	9101c3b3 	add	x19, x29, #0x70
   81900:	aa0003fc 	mov	x28, x0
   81904:	9101c7b4 	add	x20, x29, #0x71
   81908:	a9046bf9 	stp	x25, x26, [sp, #64]
   8190c:	52800019 	mov	w25, #0x0                   	// #0
   81910:	38794b9a 	ldrb	w26, [x28, w25, uxtw]
   81914:	1100073b 	add	w27, w25, #0x1
   81918:	3400037a 	cbz	w26, 81984 <__kprintf+0xac>
   8191c:	7100975f 	cmp	w26, #0x25
   81920:	540001e1 	b.ne	8195c <__kprintf+0x84>  // b.any
   81924:	387b4b80 	ldrb	w0, [x28, w27, uxtw]
   81928:	11000b39 	add	w25, w25, #0x2
   8192c:	7101901f 	cmp	w0, #0x64
   81930:	54000660 	b.eq	819fc <__kprintf+0x124>  // b.none
   81934:	54000388 	b.hi	819a4 <__kprintf+0xcc>  // b.pmore
   81938:	7100941f 	cmp	w0, #0x25
   8193c:	540001c0 	b.eq	81974 <__kprintf+0x9c>  // b.none
   81940:	71018c1f 	cmp	w0, #0x63
   81944:	54fffe61 	b.ne	81910 <__kprintf+0x38>  // b.any
   81948:	37f80417 	tbnz	w23, #31, 819c8 <__kprintf+0xf0>
   8194c:	91002ec1 	add	x1, x22, #0xb
   81950:	aa1603e0 	mov	x0, x22
   81954:	927df036 	and	x22, x1, #0xfffffffffffffff8
   81958:	14000023 	b	819e4 <__kprintf+0x10c>
   8195c:	2a1a03e0 	mov	w0, w26
   81960:	9400015a 	bl	81ec8 <mu_write_byte>
   81964:	2a1b03f9 	mov	w25, w27
   81968:	71002b5f 	cmp	w26, #0xa
   8196c:	54fffd21 	b.ne	81910 <__kprintf+0x38>  // b.any
   81970:	528001a0 	mov	w0, #0xd                   	// #13
   81974:	94000155 	bl	81ec8 <mu_write_byte>
   81978:	38794b9a 	ldrb	w26, [x28, w25, uxtw]
   8197c:	1100073b 	add	w27, w25, #0x1
   81980:	35fffcfa 	cbnz	w26, 8191c <__kprintf+0x44>
   81984:	a94153f3 	ldp	x19, x20, [sp, #16]
   81988:	52800020 	mov	w0, #0x1                   	// #1
   8198c:	a9425bf5 	ldp	x21, x22, [sp, #32]
   81990:	a94363f7 	ldp	x23, x24, [sp, #48]
   81994:	a9446bf9 	ldp	x25, x26, [sp, #64]
   81998:	a94573fb 	ldp	x27, x28, [sp, #80]
   8199c:	a8c97bfd 	ldp	x29, x30, [sp], #144
   819a0:	d65f03c0 	ret
   819a4:	7101cc1f 	cmp	w0, #0x73
   819a8:	54000480 	b.eq	81a38 <__kprintf+0x160>  // b.none
   819ac:	7101e01f 	cmp	w0, #0x78
   819b0:	54fffb01 	b.ne	81910 <__kprintf+0x38>  // b.any
   819b4:	37f807d7 	tbnz	w23, #31, 81aac <__kprintf+0x1d4>
   819b8:	91003ec1 	add	x1, x22, #0xf
   819bc:	aa1603e0 	mov	x0, x22
   819c0:	927df036 	and	x22, x1, #0xfffffffffffffff8
   819c4:	14000041 	b	81ac8 <__kprintf+0x1f0>
   819c8:	110022e1 	add	w1, w23, #0x8
   819cc:	7100003f 	cmp	w1, #0x0
   819d0:	5400010d 	b.le	819f0 <__kprintf+0x118>
   819d4:	91002ec2 	add	x2, x22, #0xb
   819d8:	aa1603e0 	mov	x0, x22
   819dc:	2a0103f7 	mov	w23, w1
   819e0:	927df056 	and	x22, x2, #0xfffffffffffffff8
   819e4:	39400000 	ldrb	w0, [x0]
   819e8:	94000138 	bl	81ec8 <mu_write_byte>
   819ec:	17ffffc9 	b	81910 <__kprintf+0x38>
   819f0:	8b37c300 	add	x0, x24, w23, sxtw
   819f4:	2a0103f7 	mov	w23, w1
   819f8:	17fffffb 	b	819e4 <__kprintf+0x10c>
   819fc:	37f802d7 	tbnz	w23, #31, 81a54 <__kprintf+0x17c>
   81a00:	91002ec1 	add	x1, x22, #0xb
   81a04:	aa1603e0 	mov	x0, x22
   81a08:	927df036 	and	x22, x1, #0xfffffffffffffff8
   81a0c:	b9800000 	ldrsw	x0, [x0]
   81a10:	aa1303e1 	mov	x1, x19
   81a14:	aa1503e2 	mov	x2, x21
   81a18:	f90037bf 	str	xzr, [x29, #104]
   81a1c:	97ffff8f 	bl	81858 <getDigit.constprop.0>
   81a20:	f94037a1 	ldr	x1, [x29, #104]
   81a24:	38216a60 	strb	w0, [x19, x1]
   81a28:	aa1303e0 	mov	x0, x19
   81a2c:	38216a9f 	strb	wzr, [x20, x1]
   81a30:	94000150 	bl	81f70 <mu_write_str>
   81a34:	17ffffb7 	b	81910 <__kprintf+0x38>
   81a38:	37f801f7 	tbnz	w23, #31, 81a74 <__kprintf+0x19c>
   81a3c:	91003ec1 	add	x1, x22, #0xf
   81a40:	aa1603e0 	mov	x0, x22
   81a44:	927df036 	and	x22, x1, #0xfffffffffffffff8
   81a48:	f9400000 	ldr	x0, [x0]
   81a4c:	94000149 	bl	81f70 <mu_write_str>
   81a50:	17ffffb0 	b	81910 <__kprintf+0x38>
   81a54:	110022e1 	add	w1, w23, #0x8
   81a58:	7100003f 	cmp	w1, #0x0
   81a5c:	540001cd 	b.le	81a94 <__kprintf+0x1bc>
   81a60:	91002ec2 	add	x2, x22, #0xb
   81a64:	aa1603e0 	mov	x0, x22
   81a68:	2a0103f7 	mov	w23, w1
   81a6c:	927df056 	and	x22, x2, #0xfffffffffffffff8
   81a70:	17ffffe7 	b	81a0c <__kprintf+0x134>
   81a74:	110022e1 	add	w1, w23, #0x8
   81a78:	7100003f 	cmp	w1, #0x0
   81a7c:	5400012d 	b.le	81aa0 <__kprintf+0x1c8>
   81a80:	91003ec2 	add	x2, x22, #0xf
   81a84:	aa1603e0 	mov	x0, x22
   81a88:	2a0103f7 	mov	w23, w1
   81a8c:	927df056 	and	x22, x2, #0xfffffffffffffff8
   81a90:	17ffffee 	b	81a48 <__kprintf+0x170>
   81a94:	8b37c300 	add	x0, x24, w23, sxtw
   81a98:	2a0103f7 	mov	w23, w1
   81a9c:	17ffffdc 	b	81a0c <__kprintf+0x134>
   81aa0:	8b37c300 	add	x0, x24, w23, sxtw
   81aa4:	2a0103f7 	mov	w23, w1
   81aa8:	17ffffe8 	b	81a48 <__kprintf+0x170>
   81aac:	110022e1 	add	w1, w23, #0x8
   81ab0:	7100003f 	cmp	w1, #0x0
   81ab4:	540004ed 	b.le	81b50 <__kprintf+0x278>
   81ab8:	91003ec2 	add	x2, x22, #0xf
   81abc:	aa1603e0 	mov	x0, x22
   81ac0:	2a0103f7 	mov	w23, w1
   81ac4:	927df056 	and	x22, x2, #0xfffffffffffffff8
   81ac8:	f9400004 	ldr	x4, [x0]
   81acc:	52800383 	mov	w3, #0x1c                  	// #28
   81ad0:	d2800002 	mov	x2, #0x0                   	// #0
   81ad4:	d503201f 	nop
   81ad8:	9ac32481 	lsr	x1, x4, x3
   81adc:	92400c21 	and	x1, x1, #0xf
   81ae0:	12001c20 	and	w0, w1, #0xff
   81ae4:	f100283f 	cmp	x1, #0xa
   81ae8:	11015c01 	add	w1, w0, #0x57
   81aec:	1100c000 	add	w0, w0, #0x30
   81af0:	1a813000 	csel	w0, w0, w1, cc  // cc = lo, ul, last
   81af4:	38226a60 	strb	w0, [x19, x2]
   81af8:	91000442 	add	x2, x2, #0x1
   81afc:	51001063 	sub	w3, w3, #0x4
   81b00:	f100205f 	cmp	x2, #0x8
   81b04:	54fffea1 	b.ne	81ad8 <__kprintf+0x200>  // b.any
   81b08:	3941c3a0 	ldrb	w0, [x29, #112]
   81b0c:	3901e3bf 	strb	wzr, [x29, #120]
   81b10:	7100c01f 	cmp	w0, #0x30
   81b14:	54000181 	b.ne	81b44 <__kprintf+0x26c>  // b.any
   81b18:	3941c7a1 	ldrb	w1, [x29, #113]
   81b1c:	34000141 	cbz	w1, 81b44 <__kprintf+0x26c>
   81b20:	91000662 	add	x2, x19, #0x1
   81b24:	14000003 	b	81b30 <__kprintf+0x258>
   81b28:	38401c41 	ldrb	w1, [x2, #1]!
   81b2c:	34000081 	cbz	w1, 81b3c <__kprintf+0x264>
   81b30:	aa0203e0 	mov	x0, x2
   81b34:	7100c03f 	cmp	w1, #0x30
   81b38:	54ffff80 	b.eq	81b28 <__kprintf+0x250>  // b.none
   81b3c:	9400010d 	bl	81f70 <mu_write_str>
   81b40:	17ffff74 	b	81910 <__kprintf+0x38>
   81b44:	aa1303e0 	mov	x0, x19
   81b48:	9400010a 	bl	81f70 <mu_write_str>
   81b4c:	17ffff71 	b	81910 <__kprintf+0x38>
   81b50:	8b37c300 	add	x0, x24, w23, sxtw
   81b54:	2a0103f7 	mov	w23, w1
   81b58:	17ffffdc 	b	81ac8 <__kprintf+0x1f0>
   81b5c:	d503201f 	nop

0000000000081b60 <kprintf>:
   81b60:	a9af7bfd 	stp	x29, x30, [sp, #-272]!
   81b64:	910003fd 	mov	x29, sp
   81b68:	910443a8 	add	x8, x29, #0x110
   81b6c:	910343a9 	add	x9, x29, #0xd0
   81b70:	a90323a8 	stp	x8, x8, [x29, #48]
   81b74:	128006e8 	mov	w8, #0xffffffc8            	// #-56
   81b78:	f90023a9 	str	x9, [x29, #64]
   81b7c:	b9004ba8 	str	w8, [x29, #72]
   81b80:	12800fe8 	mov	w8, #0xffffff80            	// #-128
   81b84:	b9004fa8 	str	w8, [x29, #76]
   81b88:	a9432faa 	ldp	x10, x11, [x29, #48]
   81b8c:	a9012faa 	stp	x10, x11, [x29, #16]
   81b90:	a94427a8 	ldp	x8, x9, [x29, #64]
   81b94:	a90227a8 	stp	x8, x9, [x29, #32]
   81b98:	3d8017a0 	str	q0, [x29, #80]
   81b9c:	3d801ba1 	str	q1, [x29, #96]
   81ba0:	3d801fa2 	str	q2, [x29, #112]
   81ba4:	3d8023a3 	str	q3, [x29, #128]
   81ba8:	3d8027a4 	str	q4, [x29, #144]
   81bac:	3d802ba5 	str	q5, [x29, #160]
   81bb0:	3d802fa6 	str	q6, [x29, #176]
   81bb4:	3d8033a7 	str	q7, [x29, #192]
   81bb8:	a90d8ba1 	stp	x1, x2, [x29, #216]
   81bbc:	910043a1 	add	x1, x29, #0x10
   81bc0:	a90e93a3 	stp	x3, x4, [x29, #232]
   81bc4:	a90f9ba5 	stp	x5, x6, [x29, #248]
   81bc8:	f90087a7 	str	x7, [x29, #264]
   81bcc:	97ffff43 	bl	818d8 <__kprintf>
   81bd0:	a8d17bfd 	ldp	x29, x30, [sp], #272
   81bd4:	d65f03c0 	ret

0000000000081bd8 <__panic>:
   81bd8:	a9af7bfd 	stp	x29, x30, [sp, #-272]!
   81bdc:	910003fd 	mov	x29, sp
   81be0:	a90153f3 	stp	x19, x20, [sp, #16]
   81be4:	aa0303f4 	mov	x20, x3
   81be8:	2a0103f3 	mov	w19, w1
   81bec:	a9025bf5 	stp	x21, x22, [sp, #32]
   81bf0:	3d801fa0 	str	q0, [x29, #112]
   81bf4:	aa0203f5 	mov	x21, x2
   81bf8:	3d8023a1 	str	q1, [x29, #128]
   81bfc:	aa0003f6 	mov	x22, x0
   81c00:	3d8027a2 	str	q2, [x29, #144]
   81c04:	f0000000 	adrp	x0, 84000 <__func__.3144+0x458>
   81c08:	3d802ba3 	str	q3, [x29, #160]
   81c0c:	9118c000 	add	x0, x0, #0x630
   81c10:	3d802fa4 	str	q4, [x29, #176]
   81c14:	3d8033a5 	str	q5, [x29, #192]
   81c18:	3d8037a6 	str	q6, [x29, #208]
   81c1c:	3d803ba7 	str	q7, [x29, #224]
   81c20:	a90f17a4 	stp	x4, x5, [x29, #240]
   81c24:	a9101fa6 	stp	x6, x7, [x29, #256]
   81c28:	97ffffce 	bl	81b60 <kprintf>
   81c2c:	f0000000 	adrp	x0, 84000 <__func__.3144+0x458>
   81c30:	91190000 	add	x0, x0, #0x640
   81c34:	97ffffcb 	bl	81b60 <kprintf>
   81c38:	f0000000 	adrp	x0, 84000 <__func__.3144+0x458>
   81c3c:	91196000 	add	x0, x0, #0x658
   81c40:	97ffffc8 	bl	81b60 <kprintf>
   81c44:	f0000000 	adrp	x0, 84000 <__func__.3144+0x458>
   81c48:	9119c000 	add	x0, x0, #0x670
   81c4c:	97ffffc5 	bl	81b60 <kprintf>
   81c50:	f0000000 	adrp	x0, 84000 <__func__.3144+0x458>
   81c54:	911a2000 	add	x0, x0, #0x688
   81c58:	97ffffc2 	bl	81b60 <kprintf>
   81c5c:	f0000000 	adrp	x0, 84000 <__func__.3144+0x458>
   81c60:	911aa000 	add	x0, x0, #0x6a8
   81c64:	97ffffbf 	bl	81b60 <kprintf>
   81c68:	f0000000 	adrp	x0, 84000 <__func__.3144+0x458>
   81c6c:	911b2000 	add	x0, x0, #0x6c8
   81c70:	97ffffbc 	bl	81b60 <kprintf>
   81c74:	f0000000 	adrp	x0, 84000 <__func__.3144+0x458>
   81c78:	911ba000 	add	x0, x0, #0x6e8
   81c7c:	97ffffb9 	bl	81b60 <kprintf>
   81c80:	f0000000 	adrp	x0, 84000 <__func__.3144+0x458>
   81c84:	911c2000 	add	x0, x0, #0x708
   81c88:	97ffffb6 	bl	81b60 <kprintf>
   81c8c:	f0000000 	adrp	x0, 84000 <__func__.3144+0x458>
   81c90:	911ca000 	add	x0, x0, #0x728
   81c94:	97ffffb3 	bl	81b60 <kprintf>
   81c98:	aa1603e1 	mov	x1, x22
   81c9c:	f0000000 	adrp	x0, 84000 <__func__.3144+0x458>
   81ca0:	911d2000 	add	x0, x0, #0x748
   81ca4:	97ffffaf 	bl	81b60 <kprintf>
   81ca8:	2a1303e1 	mov	w1, w19
   81cac:	f0000000 	adrp	x0, 84000 <__func__.3144+0x458>
   81cb0:	911d6000 	add	x0, x0, #0x758
   81cb4:	97ffffab 	bl	81b60 <kprintf>
   81cb8:	aa1503e1 	mov	x1, x21
   81cbc:	f0000000 	adrp	x0, 84000 <__func__.3144+0x458>
   81cc0:	911da000 	add	x0, x0, #0x768
   81cc4:	97ffffa7 	bl	81b60 <kprintf>
   81cc8:	910443a0 	add	x0, x29, #0x110
   81ccc:	a90503a0 	stp	x0, x0, [x29, #80]
   81cd0:	128003e0 	mov	w0, #0xffffffe0            	// #-32
   81cd4:	9103c3a1 	add	x1, x29, #0xf0
   81cd8:	f90033a1 	str	x1, [x29, #96]
   81cdc:	9100c3a1 	add	x1, x29, #0x30
   81ce0:	b9006ba0 	str	w0, [x29, #104]
   81ce4:	12800fe0 	mov	w0, #0xffffff80            	// #-128
   81ce8:	b9006fa0 	str	w0, [x29, #108]
   81cec:	aa1403e0 	mov	x0, x20
   81cf0:	a9451fa6 	ldp	x6, x7, [x29, #80]
   81cf4:	a9031fa6 	stp	x6, x7, [x29, #48]
   81cf8:	a94617a4 	ldp	x4, x5, [x29, #96]
   81cfc:	a90417a4 	stp	x4, x5, [x29, #64]
   81d00:	97fffef6 	bl	818d8 <__kprintf>
   81d04:	14000000 	b	81d04 <__panic+0x12c>

0000000000081d08 <__debug>:
   81d08:	a9af7bfd 	stp	x29, x30, [sp, #-272]!
   81d0c:	910003fd 	mov	x29, sp
   81d10:	f9000bf3 	str	x19, [sp, #16]
   81d14:	aa0103f3 	mov	x19, x1
   81d18:	aa0003e1 	mov	x1, x0
   81d1c:	f0000000 	adrp	x0, 84000 <__func__.3144+0x458>
   81d20:	3d801ba0 	str	q0, [x29, #96]
   81d24:	911de000 	add	x0, x0, #0x778
   81d28:	3d801fa1 	str	q1, [x29, #112]
   81d2c:	3d8023a2 	str	q2, [x29, #128]
   81d30:	3d8027a3 	str	q3, [x29, #144]
   81d34:	3d802ba4 	str	q4, [x29, #160]
   81d38:	3d802fa5 	str	q5, [x29, #176]
   81d3c:	3d8033a6 	str	q6, [x29, #192]
   81d40:	3d8037a7 	str	q7, [x29, #208]
   81d44:	a90e0fa2 	stp	x2, x3, [x29, #224]
   81d48:	a90f17a4 	stp	x4, x5, [x29, #240]
   81d4c:	a9101fa6 	stp	x6, x7, [x29, #256]
   81d50:	97ffff84 	bl	81b60 <kprintf>
   81d54:	910443a0 	add	x0, x29, #0x110
   81d58:	a90403a0 	stp	x0, x0, [x29, #64]
   81d5c:	128005e0 	mov	w0, #0xffffffd0            	// #-48
   81d60:	910383a1 	add	x1, x29, #0xe0
   81d64:	f9002ba1 	str	x1, [x29, #80]
   81d68:	b9005ba0 	str	w0, [x29, #88]
   81d6c:	12800fe0 	mov	w0, #0xffffff80            	// #-128
   81d70:	b9005fa0 	str	w0, [x29, #92]
   81d74:	a94407a0 	ldp	x0, x1, [x29, #64]
   81d78:	a90207a0 	stp	x0, x1, [x29, #32]
   81d7c:	a9450fa2 	ldp	x2, x3, [x29, #80]
   81d80:	910083a1 	add	x1, x29, #0x20
   81d84:	a9030fa2 	stp	x2, x3, [x29, #48]
   81d88:	aa1303e0 	mov	x0, x19
   81d8c:	97fffed3 	bl	818d8 <__kprintf>
   81d90:	f9400bf3 	ldr	x19, [sp, #16]
   81d94:	52800020 	mov	w0, #0x1                   	// #1
   81d98:	a8d17bfd 	ldp	x29, x30, [sp], #272
   81d9c:	d65f03c0 	ret

0000000000081da0 <_cstartup>:
   81da0:	f0000000 	adrp	x0, 84000 <__func__.3144+0x458>
   81da4:	f9479c03 	ldr	x3, [x0, #3896]
   81da8:	f9479002 	ldr	x2, [x0, #3872]
   81dac:	eb02007f 	cmp	x3, x2
   81db0:	54000182 	b.cs	81de0 <_cstartup+0x40>  // b.hs, b.nlast
   81db4:	91002060 	add	x0, x3, #0x8
   81db8:	91001c41 	add	x1, x2, #0x7
   81dbc:	cb000021 	sub	x1, x1, x0
   81dc0:	91004063 	add	x3, x3, #0x10
   81dc4:	927df021 	and	x1, x1, #0xfffffffffffffff8
   81dc8:	8b030021 	add	x1, x1, x3
   81dcc:	d503201f 	nop
   81dd0:	f81f801f 	stur	xzr, [x0, #-8]
   81dd4:	91002000 	add	x0, x0, #0x8
   81dd8:	eb01001f 	cmp	x0, x1
   81ddc:	54ffffa1 	b.ne	81dd0 <_cstartup+0x30>  // b.any
   81de0:	d65f03c0 	ret
   81de4:	00000000 	.inst	0x00000000 ; undefined

0000000000081de8 <mu_init>:
   81de8:	d28a0081 	mov	x1, #0x5004                	// #20484
   81dec:	a9be7bfd 	stp	x29, x30, [sp, #-32]!
   81df0:	f2a7e421 	movk	x1, #0x3f21, lsl #16
   81df4:	d28a0d06 	mov	x6, #0x5068                	// #20584
   81df8:	910003fd 	mov	x29, sp
   81dfc:	b9400020 	ldr	w0, [x1]
   81e00:	f2a7e426 	movk	x6, #0x3f21, lsl #16
   81e04:	f9000bf3 	str	x19, [sp, #16]
   81e08:	d28a0984 	mov	x4, #0x504c                	// #20556
   81e0c:	32000000 	orr	w0, w0, #0x1
   81e10:	b9000020 	str	w0, [x1]
   81e14:	f2a7e424 	movk	x4, #0x3f21, lsl #16
   81e18:	528021c7 	mov	w7, #0x10e                 	// #270
   81e1c:	b90000c7 	str	w7, [x6]
   81e20:	d2a7e403 	mov	x3, #0x3f200000            	// #1059061760
   81e24:	d2800082 	mov	x2, #0x4                   	// #4
   81e28:	d2801285 	mov	x5, #0x94                  	// #148
   81e2c:	b9400081 	ldr	w1, [x4]
   81e30:	f2a7e402 	movk	x2, #0x3f20, lsl #16
   81e34:	f2a7e405 	movk	x5, #0x3f20, lsl #16
   81e38:	d2801313 	mov	x19, #0x98                  	// #152
   81e3c:	32000421 	orr	w1, w1, #0x3
   81e40:	b9000081 	str	w1, [x4]
   81e44:	f2a7e413 	movk	x19, #0x3f20, lsl #16
   81e48:	d28012c0 	mov	x0, #0x96                  	// #150
   81e4c:	b9400061 	ldr	w1, [x3]
   81e50:	12117021 	and	w1, w1, #0xffff8fff
   81e54:	32140021 	orr	w1, w1, #0x1000
   81e58:	b9000061 	str	w1, [x3]
   81e5c:	b9400041 	ldr	w1, [x2]
   81e60:	12117021 	and	w1, w1, #0xffff8fff
   81e64:	32130021 	orr	w1, w1, #0x2000
   81e68:	b9000041 	str	w1, [x2]
   81e6c:	b9400041 	ldr	w1, [x2]
   81e70:	120e7021 	and	w1, w1, #0xfffc7fff
   81e74:	32100021 	orr	w1, w1, #0x10000
   81e78:	b9000041 	str	w1, [x2]
   81e7c:	b90000bf 	str	wzr, [x5]
   81e80:	97fffe4e 	bl	817b8 <spin_sleep_us>
   81e84:	52980000 	mov	w0, #0xc000                	// #49152
   81e88:	b9000260 	str	w0, [x19]
   81e8c:	d28012c0 	mov	x0, #0x96                  	// #150
   81e90:	97fffe4a 	bl	817b8 <spin_sleep_us>
   81e94:	b900027f 	str	wzr, [x19]
   81e98:	d28a0900 	mov	x0, #0x5048                	// #20552
   81e9c:	f9400bf3 	ldr	x19, [sp, #16]
   81ea0:	f2a7e420 	movk	x0, #0x3f21, lsl #16
   81ea4:	b9400001 	ldr	w1, [x0]
   81ea8:	321f0021 	orr	w1, w1, #0x2
   81eac:	b9000001 	str	w1, [x0]
   81eb0:	b9400001 	ldr	w1, [x0]
   81eb4:	321e0021 	orr	w1, w1, #0x4
   81eb8:	b9000001 	str	w1, [x0]
   81ebc:	a8c27bfd 	ldp	x29, x30, [sp], #32
   81ec0:	d65f03c0 	ret
   81ec4:	d503201f 	nop

0000000000081ec8 <mu_write_byte>:
   81ec8:	d28a0a82 	mov	x2, #0x5054                	// #20564
   81ecc:	12001c00 	and	w0, w0, #0xff
   81ed0:	f2a7e422 	movk	x2, #0x3f21, lsl #16
   81ed4:	d503201f 	nop
   81ed8:	b9400041 	ldr	w1, [x2]
   81edc:	362fffe1 	tbz	w1, #5, 81ed8 <mu_write_byte+0x10>
   81ee0:	d28a0801 	mov	x1, #0x5040                	// #20544
   81ee4:	f2a7e421 	movk	x1, #0x3f21, lsl #16
   81ee8:	b9000020 	str	w0, [x1]
   81eec:	d65f03c0 	ret

0000000000081ef0 <mu_write_fifo>:
   81ef0:	d28a0c81 	mov	x1, #0x5064                	// #20580
   81ef4:	12001c02 	and	w2, w0, #0xff
   81ef8:	f2a7e421 	movk	x1, #0x3f21, lsl #16
   81efc:	52800000 	mov	w0, #0x0                   	// #0
   81f00:	b9400021 	ldr	w1, [x1]
   81f04:	360800a1 	tbz	w1, #1, 81f18 <mu_write_fifo+0x28>
   81f08:	d28a0801 	mov	x1, #0x5040                	// #20544
   81f0c:	52800020 	mov	w0, #0x1                   	// #1
   81f10:	f2a7e421 	movk	x1, #0x3f21, lsl #16
   81f14:	b9000022 	str	w2, [x1]
   81f18:	d65f03c0 	ret
   81f1c:	d503201f 	nop

0000000000081f20 <mu_read_byte>:
   81f20:	d28a0a81 	mov	x1, #0x5054                	// #20564
   81f24:	f2a7e421 	movk	x1, #0x3f21, lsl #16
   81f28:	b9400020 	ldr	w0, [x1]
   81f2c:	3607ffe0 	tbz	w0, #0, 81f28 <mu_read_byte+0x8>
   81f30:	d28a0800 	mov	x0, #0x5040                	// #20544
   81f34:	f2a7e420 	movk	x0, #0x3f21, lsl #16
   81f38:	b9400000 	ldr	w0, [x0]
   81f3c:	d65f03c0 	ret

0000000000081f40 <mu_read_fifo>:
   81f40:	d28a0a81 	mov	x1, #0x5054                	// #20564
   81f44:	aa0003e2 	mov	x2, x0
   81f48:	f2a7e421 	movk	x1, #0x3f21, lsl #16
   81f4c:	52800000 	mov	w0, #0x0                   	// #0
   81f50:	b9400021 	ldr	w1, [x1]
   81f54:	360000c1 	tbz	w1, #0, 81f6c <mu_read_fifo+0x2c>
   81f58:	d28a0801 	mov	x1, #0x5040                	// #20544
   81f5c:	52800020 	mov	w0, #0x1                   	// #1
   81f60:	f2a7e421 	movk	x1, #0x3f21, lsl #16
   81f64:	b9400021 	ldr	w1, [x1]
   81f68:	39000041 	strb	w1, [x2]
   81f6c:	d65f03c0 	ret

0000000000081f70 <mu_write_str>:
   81f70:	39400002 	ldrb	w2, [x0]
   81f74:	34000182 	cbz	w2, 81fa4 <mu_write_str+0x34>
   81f78:	d28a0a81 	mov	x1, #0x5054                	// #20564
   81f7c:	d28a0804 	mov	x4, #0x5040                	// #20544
   81f80:	91000403 	add	x3, x0, #0x1
   81f84:	f2a7e421 	movk	x1, #0x3f21, lsl #16
   81f88:	f2a7e424 	movk	x4, #0x3f21, lsl #16
   81f8c:	d503201f 	nop
   81f90:	b9400020 	ldr	w0, [x1]
   81f94:	362fffe0 	tbz	w0, #5, 81f90 <mu_write_str+0x20>
   81f98:	b9000082 	str	w2, [x4]
   81f9c:	38401462 	ldrb	w2, [x3], #1
   81fa0:	35ffff82 	cbnz	w2, 81f90 <mu_write_str+0x20>
   81fa4:	d65f03c0 	ret

0000000000081fa8 <atag_display>:
   81fa8:	a9bd7bfd 	stp	x29, x30, [sp, #-48]!
   81fac:	910003fd 	mov	x29, sp
   81fb0:	f9000bf3 	str	x19, [sp, #16]
   81fb4:	d2802013 	mov	x19, #0x100                 	// #256
   81fb8:	b9400661 	ldr	w1, [x19, #4]
   81fbc:	340004e1 	cbz	w1, 82058 <atag_display+0xb0>
   81fc0:	a901d7b4 	stp	x20, x21, [x29, #24]
   81fc4:	52800054 	mov	w20, #0x2                   	// #2
   81fc8:	f0000015 	adrp	x21, 84000 <__func__.3144+0x458>
   81fcc:	f90017b6 	str	x22, [x29, #40]
   81fd0:	911f42b5 	add	x21, x21, #0x7d0
   81fd4:	f0000016 	adrp	x22, 84000 <__func__.3144+0x458>
   81fd8:	72aa8834 	movk	w20, #0x5441, lsl #16
   81fdc:	911f02d6 	add	x22, x22, #0x7c0
   81fe0:	14000010 	b	82020 <atag_display+0x78>
   81fe4:	52800120 	mov	w0, #0x9                   	// #9
   81fe8:	72aa8820 	movk	w0, #0x5441, lsl #16
   81fec:	6b00003f 	cmp	w1, w0
   81ff0:	540004e0 	b.eq	8208c <atag_display+0xe4>  // b.none
   81ff4:	52800020 	mov	w0, #0x1                   	// #1
   81ff8:	72aa8820 	movk	w0, #0x5441, lsl #16
   81ffc:	6b00003f 	cmp	w1, w0
   82000:	54000320 	b.eq	82064 <atag_display+0xbc>  // b.none
   82004:	d0000000 	adrp	x0, 84000 <__func__.3144+0x458>
   82008:	91204000 	add	x0, x0, #0x810
   8200c:	97fffed5 	bl	81b60 <kprintf>
   82010:	b9400260 	ldr	w0, [x19]
   82014:	8b204a73 	add	x19, x19, w0, uxtw #2
   82018:	b9400661 	ldr	w1, [x19, #4]
   8201c:	340001a1 	cbz	w1, 82050 <atag_display+0xa8>
   82020:	6b14003f 	cmp	w1, w20
   82024:	54fffe01 	b.ne	81fe4 <atag_display+0x3c>  // b.any
   82028:	aa1603e0 	mov	x0, x22
   8202c:	97fffecd 	bl	81b60 <kprintf>
   82030:	b9400a61 	ldr	w1, [x19, #8]
   82034:	aa1503e0 	mov	x0, x21
   82038:	b9400e62 	ldr	w2, [x19, #12]
   8203c:	97fffec9 	bl	81b60 <kprintf>
   82040:	b9400260 	ldr	w0, [x19]
   82044:	8b204a73 	add	x19, x19, w0, uxtw #2
   82048:	b9400661 	ldr	w1, [x19, #4]
   8204c:	35fffea1 	cbnz	w1, 82020 <atag_display+0x78>
   82050:	a941d7b4 	ldp	x20, x21, [x29, #24]
   82054:	f94017b6 	ldr	x22, [x29, #40]
   82058:	f9400bf3 	ldr	x19, [sp, #16]
   8205c:	a8c37bfd 	ldp	x29, x30, [sp], #48
   82060:	d65f03c0 	ret
   82064:	d0000000 	adrp	x0, 84000 <__func__.3144+0x458>
   82068:	911e0000 	add	x0, x0, #0x780
   8206c:	97fffebd 	bl	81b60 <kprintf>
   82070:	b9400a61 	ldr	w1, [x19, #8]
   82074:	d0000000 	adrp	x0, 84000 <__func__.3144+0x458>
   82078:	b9400e62 	ldr	w2, [x19, #12]
   8207c:	911e4000 	add	x0, x0, #0x790
   82080:	b9401263 	ldr	w3, [x19, #16]
   82084:	97fffeb7 	bl	81b60 <kprintf>
   82088:	17ffffe2 	b	82010 <atag_display+0x68>
   8208c:	d0000000 	adrp	x0, 84000 <__func__.3144+0x458>
   82090:	911fc000 	add	x0, x0, #0x7f0
   82094:	97fffeb3 	bl	81b60 <kprintf>
   82098:	d0000000 	adrp	x0, 84000 <__func__.3144+0x458>
   8209c:	91002261 	add	x1, x19, #0x8
   820a0:	91200000 	add	x0, x0, #0x800
   820a4:	97fffeaf 	bl	81b60 <kprintf>
   820a8:	17ffffda 	b	82010 <atag_display+0x68>

00000000000820ac <fat32_init>:
   820ac:	d11203ff 	sub	sp, sp, #0x480
   820b0:	a9007bfd 	stp	x29, x30, [sp]
   820b4:	910003fd 	mov	x29, sp
   820b8:	a90153f3 	stp	x19, x20, [sp, #16]
   820bc:	a9025bf5 	stp	x21, x22, [sp, #32]
   820c0:	a90363f7 	stp	x23, x24, [sp, #48]
   820c4:	aa0003f7 	mov	x23, x0
   820c8:	d0000013 	adrp	x19, 84000 <__func__.3144+0x458>
   820cc:	91208273 	add	x19, x19, #0x820
   820d0:	d2800402 	mov	x2, #0x20                  	// #32
   820d4:	d0000001 	adrp	x1, 84000 <__func__.3144+0x458>
   820d8:	91224021 	add	x1, x1, #0x890
   820dc:	aa1303e0 	mov	x0, x19
   820e0:	97ffff0a 	bl	81d08 <__debug>
   820e4:	d2800402 	mov	x2, #0x20                  	// #32
   820e8:	d0000001 	adrp	x1, 84000 <__func__.3144+0x458>
   820ec:	9122c021 	add	x1, x1, #0x8b0
   820f0:	aa1303e0 	mov	x0, x19
   820f4:	97ffff05 	bl	81d08 <__debug>
   820f8:	d2800402 	mov	x2, #0x20                  	// #32
   820fc:	d0000001 	adrp	x1, 84000 <__func__.3144+0x458>
   82100:	91234021 	add	x1, x1, #0x8d0
   82104:	aa1303e0 	mov	x0, x19
   82108:	97ffff00 	bl	81d08 <__debug>
   8210c:	d2801700 	mov	x0, #0xb8                  	// #184
   82110:	97fff994 	bl	80760 <malloc>
   82114:	aa0003f5 	mov	x21, x0
   82118:	b4000880 	cbz	x0, 82228 <fat32_init+0x17c>
   8211c:	f9400ae2 	ldr	x2, [x23, #16]
   82120:	910103a1 	add	x1, x29, #0x40
   82124:	52800000 	mov	w0, #0x0                   	// #0
   82128:	d63f0040 	blr	x2
   8212c:	7108001f 	cmp	w0, #0x200
   82130:	540008c1 	b.ne	82248 <fat32_init+0x19c>  // b.any
   82134:	910103b6 	add	x22, x29, #0x40
   82138:	911103b3 	add	x19, x29, #0x440
   8213c:	d2800142 	mov	x2, #0xa                   	// #10
   82140:	9107d3a1 	add	x1, x29, #0x1f4
   82144:	aa1303e0 	mov	x0, x19
   82148:	97fff7ba 	bl	80030 <memcpy>
   8214c:	d2800042 	mov	x2, #0x2                   	// #2
   82150:	910802c1 	add	x1, x22, #0x200
   82154:	9100f260 	add	x0, x19, #0x3c
   82158:	97fff7b6 	bl	80030 <memcpy>
   8215c:	91004273 	add	x19, x19, #0x10
   82160:	91071ad4 	add	x20, x22, #0x1c6
   82164:	91081ad6 	add	x22, x22, #0x206
   82168:	d2800098 	mov	x24, #0x4                   	// #4
   8216c:	385f8280 	ldurb	w0, [x20, #-8]
   82170:	381fc260 	sturb	w0, [x19, #-4]
   82174:	385fc280 	ldurb	w0, [x20, #-4]
   82178:	381fd260 	sturb	w0, [x19, #-3]
   8217c:	aa1803e2 	mov	x2, x24
   82180:	aa1403e1 	mov	x1, x20
   82184:	aa1303e0 	mov	x0, x19
   82188:	97fff7aa 	bl	80030 <memcpy>
   8218c:	aa1803e2 	mov	x2, x24
   82190:	91001281 	add	x1, x20, #0x4
   82194:	91001260 	add	x0, x19, #0x4
   82198:	97fff7a6 	bl	80030 <memcpy>
   8219c:	91003273 	add	x19, x19, #0xc
   821a0:	91004294 	add	x20, x20, #0x10
   821a4:	eb16029f 	cmp	x20, x22
   821a8:	54fffe21 	b.ne	8216c <fat32_init+0xc0>  // b.any
   821ac:	395137a0 	ldrb	w0, [x29, #1101]
   821b0:	51002c00 	sub	w0, w0, #0xb
   821b4:	12001c00 	and	w0, w0, #0xff
   821b8:	7100041f 	cmp	w0, #0x1
   821bc:	540006c9 	b.ls	82294 <fat32_init+0x1e8>  // b.plast
   821c0:	395167a0 	ldrb	w0, [x29, #1113]
   821c4:	51002c00 	sub	w0, w0, #0xb
   821c8:	12001c00 	and	w0, w0, #0xff
   821cc:	7100041f 	cmp	w0, #0x1
   821d0:	540005a9 	b.ls	82284 <fat32_init+0x1d8>  // b.plast
   821d4:	395197a0 	ldrb	w0, [x29, #1125]
   821d8:	51002c00 	sub	w0, w0, #0xb
   821dc:	12001c00 	and	w0, w0, #0xff
   821e0:	7100041f 	cmp	w0, #0x1
   821e4:	54000549 	b.ls	8228c <fat32_init+0x1e0>  // b.plast
   821e8:	3951c7a0 	ldrb	w0, [x29, #1137]
   821ec:	51002c00 	sub	w0, w0, #0xb
   821f0:	12001c00 	and	w0, w0, #0xff
   821f4:	7100041f 	cmp	w0, #0x1
   821f8:	54000429 	b.ls	8227c <fat32_init+0x1d0>  // b.plast
   821fc:	d0000003 	adrp	x3, 84000 <__func__.3144+0x458>
   82200:	91258063 	add	x3, x3, #0x960
   82204:	d0000002 	adrp	x2, 84000 <__func__.3144+0x458>
   82208:	91208042 	add	x2, x2, #0x820
   8220c:	91008042 	add	x2, x2, #0x20
   82210:	528005c1 	mov	w1, #0x2e                  	// #46
   82214:	d0000000 	adrp	x0, 84000 <__func__.3144+0x458>
   82218:	91248000 	add	x0, x0, #0x920
   8221c:	97fffe6f 	bl	81bd8 <__panic>
   82220:	52800013 	mov	w19, #0x0                   	// #0
   82224:	14000022 	b	822ac <fat32_init+0x200>
   82228:	d0000003 	adrp	x3, 84000 <__func__.3144+0x458>
   8222c:	9123c063 	add	x3, x3, #0x8f0
   82230:	aa1303e2 	mov	x2, x19
   82234:	52800821 	mov	w1, #0x41                  	// #65
   82238:	d0000000 	adrp	x0, 84000 <__func__.3144+0x458>
   8223c:	91248000 	add	x0, x0, #0x920
   82240:	97fffe66 	bl	81bd8 <__panic>
   82244:	17ffffb6 	b	8211c <fat32_init+0x70>
   82248:	d0000000 	adrp	x0, 84000 <__func__.3144+0x458>
   8224c:	f9479800 	ldr	x0, [x0, #3888]
   82250:	b9400004 	ldr	w4, [x0]
   82254:	d0000003 	adrp	x3, 84000 <__func__.3144+0x458>
   82258:	9124c063 	add	x3, x3, #0x930
   8225c:	d0000002 	adrp	x2, 84000 <__func__.3144+0x458>
   82260:	91208042 	add	x2, x2, #0x820
   82264:	91004042 	add	x2, x2, #0x10
   82268:	52800241 	mov	w1, #0x12                  	// #18
   8226c:	d0000000 	adrp	x0, 84000 <__func__.3144+0x458>
   82270:	91248000 	add	x0, x0, #0x920
   82274:	97fffe59 	bl	81bd8 <__panic>
   82278:	17ffffaf 	b	82134 <fat32_init+0x88>
   8227c:	52800060 	mov	w0, #0x3                   	// #3
   82280:	14000006 	b	82298 <fat32_init+0x1ec>
   82284:	52800020 	mov	w0, #0x1                   	// #1
   82288:	14000004 	b	82298 <fat32_init+0x1ec>
   8228c:	52800040 	mov	w0, #0x2                   	// #2
   82290:	14000002 	b	82298 <fat32_init+0x1ec>
   82294:	52800000 	mov	w0, #0x0                   	// #0
   82298:	93407c00 	sxtw	x0, w0
   8229c:	8b000400 	add	x0, x0, x0, lsl #1
   822a0:	911143a1 	add	x1, x29, #0x450
   822a4:	b8607833 	ldr	w19, [x1, x0, lsl #2]
   822a8:	34fffab3 	cbz	w19, 821fc <fat32_init+0x150>
   822ac:	f9400ae2 	ldr	x2, [x23, #16]
   822b0:	910903a1 	add	x1, x29, #0x240
   822b4:	2a1303e0 	mov	w0, w19
   822b8:	d63f0040 	blr	x2
   822bc:	7108001f 	cmp	w0, #0x200
   822c0:	540001c0 	b.eq	822f8 <fat32_init+0x24c>  // b.none
   822c4:	d0000000 	adrp	x0, 84000 <__func__.3144+0x458>
   822c8:	f9479800 	ldr	x0, [x0, #3888]
   822cc:	b9400005 	ldr	w5, [x0]
   822d0:	2a1303e4 	mov	w4, w19
   822d4:	d0000003 	adrp	x3, 84000 <__func__.3144+0x458>
   822d8:	91260063 	add	x3, x3, #0x980
   822dc:	d0000002 	adrp	x2, 84000 <__func__.3144+0x458>
   822e0:	91208042 	add	x2, x2, #0x820
   822e4:	91008042 	add	x2, x2, #0x20
   822e8:	52800621 	mov	w1, #0x31                  	// #49
   822ec:	d0000000 	adrp	x0, 84000 <__func__.3144+0x458>
   822f0:	91248000 	add	x0, x0, #0x920
   822f4:	97fffe39 	bl	81bd8 <__panic>
   822f8:	395133a0 	ldrb	w0, [x29, #1100]
   822fc:	7102001f 	cmp	w0, #0x80
   82300:	54000780 	b.eq	823f0 <fat32_init+0x344>  // b.none
   82304:	395163a0 	ldrb	w0, [x29, #1112]
   82308:	7102001f 	cmp	w0, #0x80
   8230c:	54000760 	b.eq	823f8 <fat32_init+0x34c>  // b.none
   82310:	395193a0 	ldrb	w0, [x29, #1124]
   82314:	7102001f 	cmp	w0, #0x80
   82318:	54000740 	b.eq	82400 <fat32_init+0x354>  // b.none
   8231c:	3951c3a0 	ldrb	w0, [x29, #1136]
   82320:	7102001f 	cmp	w0, #0x80
   82324:	54000720 	b.eq	82408 <fat32_init+0x35c>  // b.none
   82328:	d0000003 	adrp	x3, 84000 <__func__.3144+0x458>
   8232c:	9126e063 	add	x3, x3, #0x9b8
   82330:	d0000002 	adrp	x2, 84000 <__func__.3144+0x458>
   82334:	91208042 	add	x2, x2, #0x820
   82338:	528009a1 	mov	w1, #0x4d                  	// #77
   8233c:	d0000000 	adrp	x0, 84000 <__func__.3144+0x458>
   82340:	91248000 	add	x0, x0, #0x920
   82344:	97fffe25 	bl	81bd8 <__panic>
   82348:	12800000 	mov	w0, #0xffffffff            	// #-1
   8234c:	93407c00 	sxtw	x0, w0
   82350:	8b000400 	add	x0, x0, x0, lsl #1
   82354:	79449fa1 	ldrh	w1, [x29, #590]
   82358:	911143a2 	add	x2, x29, #0x450
   8235c:	b8607840 	ldr	w0, [x2, x0, lsl #2]
   82360:	0b010000 	add	w0, w0, w1
   82364:	b900aaa0 	str	w0, [x21, #168]
   82368:	910282a0 	add	x0, x21, #0xa0
   8236c:	d2800042 	mov	x2, #0x2                   	// #2
   82370:	91092fa1 	add	x1, x29, #0x24b
   82374:	aa0003f3 	mov	x19, x0
   82378:	97fff72e 	bl	80030 <memcpy>
   8237c:	394937a0 	ldrb	w0, [x29, #589]
   82380:	39028aa0 	strb	w0, [x21, #162]
   82384:	b9426fa0 	ldr	w0, [x29, #620]
   82388:	b900b2a0 	str	w0, [x21, #176]
   8238c:	b94267a1 	ldr	w1, [x29, #612]
   82390:	b900a6a1 	str	w1, [x21, #164]
   82394:	b940aaa2 	ldr	w2, [x21, #168]
   82398:	394943a0 	ldrb	w0, [x29, #592]
   8239c:	1b010800 	madd	w0, w0, w1, w2
   823a0:	b900aea0 	str	w0, [x21, #172]
   823a4:	a94006e0 	ldp	x0, x1, [x23]
   823a8:	a90086a0 	stp	x0, x1, [x21, #8]
   823ac:	f9400ae0 	ldr	x0, [x23, #16]
   823b0:	f9000ea0 	str	x0, [x21, #24]
   823b4:	794142a0 	ldrh	w0, [x21, #160]
   823b8:	b90006a0 	str	w0, [x21, #4]
   823bc:	aa1503e1 	mov	x1, x21
   823c0:	b8020422 	str	w2, [x1], #32
   823c4:	aa1303e0 	mov	x0, x19
   823c8:	f800843f 	str	xzr, [x1], #8
   823cc:	eb01001f 	cmp	x0, x1
   823d0:	54ffffc1 	b.ne	823c8 <fat32_init+0x31c>  // b.any
   823d4:	aa1503e0 	mov	x0, x21
   823d8:	a94153f3 	ldp	x19, x20, [sp, #16]
   823dc:	a9425bf5 	ldp	x21, x22, [sp, #32]
   823e0:	a94363f7 	ldp	x23, x24, [sp, #48]
   823e4:	a9407bfd 	ldp	x29, x30, [sp]
   823e8:	911203ff 	add	sp, sp, #0x480
   823ec:	d65f03c0 	ret
   823f0:	52800000 	mov	w0, #0x0                   	// #0
   823f4:	17ffffd6 	b	8234c <fat32_init+0x2a0>
   823f8:	52800020 	mov	w0, #0x1                   	// #1
   823fc:	17ffffd4 	b	8234c <fat32_init+0x2a0>
   82400:	52800040 	mov	w0, #0x2                   	// #2
   82404:	17ffffd2 	b	8234c <fat32_init+0x2a0>
   82408:	52800060 	mov	w0, #0x3                   	// #3
   8240c:	17ffffd0 	b	8234c <fat32_init+0x2a0>

0000000000082410 <fat32_read_cluster>:
   82410:	a9bb7bfd 	stp	x29, x30, [sp, #-80]!
   82414:	910003fd 	mov	x29, sp
   82418:	f90017f6 	str	x22, [sp, #40]
   8241c:	f90027fa 	str	x26, [sp, #72]
   82420:	39428803 	ldrb	w3, [x0, #162]
   82424:	7941401a 	ldrh	w26, [x0, #160]
   82428:	34000443 	cbz	w3, 824b0 <fat32_read_cluster+0xa0>
   8242c:	a90153b3 	stp	x19, x20, [x29, #16]
   82430:	f90013b5 	str	x21, [x29, #32]
   82434:	a90363b7 	stp	x23, x24, [x29, #48]
   82438:	f90023b9 	str	x25, [x29, #64]
   8243c:	2a0303f9 	mov	w25, w3
   82440:	aa0203f8 	mov	x24, x2
   82444:	aa0003f5 	mov	x21, x0
   82448:	d1000837 	sub	x23, x1, #0x2
   8244c:	92401c63 	and	x3, x3, #0xff
   82450:	9b037ef7 	mul	x23, x23, x3
   82454:	52800014 	mov	w20, #0x0                   	// #0
   82458:	d2800013 	mov	x19, #0x0                   	// #0
   8245c:	d2800016 	mov	x22, #0x0                   	// #0
   82460:	b940aea1 	ldr	w1, [x21, #172]
   82464:	8b170021 	add	x1, x1, x23
   82468:	8b344302 	add	x2, x24, w20, uxtw
   8246c:	8b130021 	add	x1, x1, x19
   82470:	aa1503e0 	mov	x0, x21
   82474:	97fff7d3 	bl	803c0 <cd_read_sector>
   82478:	8b0002d6 	add	x22, x22, x0
   8247c:	91000673 	add	x19, x19, #0x1
   82480:	0b1a0294 	add	w20, w20, w26
   82484:	6b13033f 	cmp	w25, w19
   82488:	54fffec8 	b.hi	82460 <fat32_read_cluster+0x50>  // b.pmore
   8248c:	a94153b3 	ldp	x19, x20, [x29, #16]
   82490:	f94013b5 	ldr	x21, [x29, #32]
   82494:	a94363b7 	ldp	x23, x24, [x29, #48]
   82498:	f94023b9 	ldr	x25, [x29, #64]
   8249c:	aa1603e0 	mov	x0, x22
   824a0:	f94017f6 	ldr	x22, [sp, #40]
   824a4:	f94027fa 	ldr	x26, [sp, #72]
   824a8:	a8c57bfd 	ldp	x29, x30, [sp], #80
   824ac:	d65f03c0 	ret
   824b0:	d2800016 	mov	x22, #0x0                   	// #0
   824b4:	17fffffa 	b	8249c <fat32_read_cluster+0x8c>

00000000000824b8 <fat32_read_chain>:
   824b8:	a9b77bfd 	stp	x29, x30, [sp, #-144]!
   824bc:	910003fd 	mov	x29, sp
   824c0:	a90153f3 	stp	x19, x20, [sp, #16]
   824c4:	f90013f5 	str	x21, [sp, #32]
   824c8:	a90363f7 	stp	x23, x24, [sp, #48]
   824cc:	f90027fa 	str	x26, [sp, #72]
   824d0:	f9002ffc 	str	x28, [sp, #88]
   824d4:	aa0003f4 	mov	x20, x0
   824d8:	aa0103f8 	mov	x24, x1
   824dc:	aa0203f7 	mov	x23, x2
   824e0:	b940a813 	ldr	w19, [x0, #168]
   824e4:	7941401a 	ldrh	w26, [x0, #160]
   824e8:	3942881c 	ldrb	w28, [x0, #162]
   824ec:	92403f40 	and	x0, x26, #0xffff
   824f0:	97fff89c 	bl	80760 <malloc>
   824f4:	d2800015 	mov	x21, #0x0                   	// #0
   824f8:	b4000380 	cbz	x0, 82568 <fat32_read_chain+0xb0>
   824fc:	f90017b6 	str	x22, [x29, #40]
   82500:	f90023b9 	str	x25, [x29, #64]
   82504:	f9002bbb 	str	x27, [x29, #80]
   82508:	aa0003f6 	mov	x22, x0
   8250c:	f9003fb4 	str	x20, [x29, #120]
   82510:	2a1303e0 	mov	w0, w19
   82514:	f9003ba0 	str	x0, [x29, #112]
   82518:	2a1a03f9 	mov	w25, w26
   8251c:	b9008fb8 	str	w24, [x29, #140]
   82520:	1ada0b1b 	udiv	w27, w24, w26
   82524:	8b3b4013 	add	x19, x0, w27, uxtw
   82528:	aa1603e2 	mov	x2, x22
   8252c:	aa1303e1 	mov	x1, x19
   82530:	aa1403e0 	mov	x0, x20
   82534:	97fff7a3 	bl	803c0 <cd_read_sector>
   82538:	b4000280 	cbz	x0, 82588 <fat32_read_chain+0xd0>
   8253c:	1ada0b00 	udiv	w0, w24, w26
   82540:	1b1ae000 	msub	w0, w0, w26, w24
   82544:	b8607ad3 	ldr	w19, [x22, x0, lsl #2]
   82548:	d2800015 	mov	x21, #0x0                   	// #0
   8254c:	72006e73 	ands	w19, w19, #0xfffffff
   82550:	54000321 	b.ne	825b4 <fat32_read_chain+0xfc>  // b.any
   82554:	aa1603e0 	mov	x0, x22
   82558:	97fff8c8 	bl	80878 <free>
   8255c:	f94017b6 	ldr	x22, [x29, #40]
   82560:	f94023b9 	ldr	x25, [x29, #64]
   82564:	f9402bbb 	ldr	x27, [x29, #80]
   82568:	aa1503e0 	mov	x0, x21
   8256c:	a94153f3 	ldp	x19, x20, [sp, #16]
   82570:	f94013f5 	ldr	x21, [sp, #32]
   82574:	a94363f7 	ldp	x23, x24, [sp, #48]
   82578:	f94027fa 	ldr	x26, [sp, #72]
   8257c:	f9402ffc 	ldr	x28, [sp, #88]
   82580:	a8c97bfd 	ldp	x29, x30, [sp], #144
   82584:	d65f03c0 	ret
   82588:	aa1303e4 	mov	x4, x19
   8258c:	d0000003 	adrp	x3, 84000 <__func__.3144+0x458>
   82590:	91276063 	add	x3, x3, #0x9d8
   82594:	d0000002 	adrp	x2, 84000 <__func__.3144+0x458>
   82598:	91208042 	add	x2, x2, #0x820
   8259c:	9100c042 	add	x2, x2, #0x30
   825a0:	52801381 	mov	w1, #0x9c                  	// #156
   825a4:	d0000000 	adrp	x0, 84000 <__func__.3144+0x458>
   825a8:	91248000 	add	x0, x0, #0x920
   825ac:	97fffd8b 	bl	81bd8 <__panic>
   825b0:	17ffffe3 	b	8253c <fat32_read_chain+0x84>
   825b4:	1b1a7f9a 	mul	w26, w28, w26
   825b8:	2a1a03e0 	mov	w0, w26
   825bc:	f90043a0 	str	x0, [x29, #128]
   825c0:	97fff868 	bl	80760 <malloc>
   825c4:	f90002e0 	str	x0, [x23]
   825c8:	b4fffc60 	cbz	x0, 82554 <fat32_read_chain+0x9c>
   825cc:	d0000000 	adrp	x0, 84000 <__func__.3144+0x458>
   825d0:	f90037a0 	str	x0, [x29, #104]
   825d4:	d0000000 	adrp	x0, 84000 <__func__.3144+0x458>
   825d8:	91208000 	add	x0, x0, #0x820
   825dc:	9100c000 	add	x0, x0, #0x30
   825e0:	f90033a0 	str	x0, [x29, #96]
   825e4:	1400000d 	b	82618 <fat32_read_chain+0x160>
   825e8:	1ad90a60 	udiv	w0, w19, w25
   825ec:	1b19cc00 	msub	w0, w0, w25, w19
   825f0:	b8607ada 	ldr	w26, [x22, x0, lsl #2]
   825f4:	12006f5a 	and	w26, w26, #0xfffffff
   825f8:	f94043a0 	ldr	x0, [x29, #128]
   825fc:	8b150001 	add	x1, x0, x21
   82600:	f94002e0 	ldr	x0, [x23]
   82604:	97fff8b7 	bl	808e0 <realloc>
   82608:	f90002e0 	str	x0, [x23]
   8260c:	b9008fb3 	str	w19, [x29, #140]
   82610:	b4000577 	cbz	x23, 826bc <fat32_read_chain+0x204>
   82614:	2a1a03f3 	mov	w19, w26
   82618:	f94002e2 	ldr	x2, [x23]
   8261c:	8b150042 	add	x2, x2, x21
   82620:	b9408fa1 	ldr	w1, [x29, #140]
   82624:	aa1403e0 	mov	x0, x20
   82628:	97ffff7a 	bl	82410 <fat32_read_cluster>
   8262c:	8b0002b5 	add	x21, x21, x0
   82630:	51000a60 	sub	w0, w19, #0x2
   82634:	529ffda1 	mov	w1, #0xffed                	// #65517
   82638:	72a1ffe1 	movk	w1, #0xfff, lsl #16
   8263c:	6b01001f 	cmp	w0, w1
   82640:	540002c8 	b.hi	82698 <fat32_read_chain+0x1e0>  // b.pmore
   82644:	1ad90a7a 	udiv	w26, w19, w25
   82648:	6b1b035f 	cmp	w26, w27
   8264c:	54fffce0 	b.eq	825e8 <fat32_read_chain+0x130>  // b.none
   82650:	2a1a03fc 	mov	w28, w26
   82654:	f9403ba0 	ldr	x0, [x29, #112]
   82658:	8b00039c 	add	x28, x28, x0
   8265c:	aa1603e2 	mov	x2, x22
   82660:	aa1c03e1 	mov	x1, x28
   82664:	f9403fa0 	ldr	x0, [x29, #120]
   82668:	97fff756 	bl	803c0 <cd_read_sector>
   8266c:	2a1a03fb 	mov	w27, w26
   82670:	b5fffbc0 	cbnz	x0, 825e8 <fat32_read_chain+0x130>
   82674:	aa1c03e4 	mov	x4, x28
   82678:	f94037a0 	ldr	x0, [x29, #104]
   8267c:	91276003 	add	x3, x0, #0x9d8
   82680:	f94033a2 	ldr	x2, [x29, #96]
   82684:	52801801 	mov	w1, #0xc0                  	// #192
   82688:	d0000000 	adrp	x0, 84000 <__func__.3144+0x458>
   8268c:	91248000 	add	x0, x0, #0x920
   82690:	97fffd52 	bl	81bd8 <__panic>
   82694:	17ffffd5 	b	825e8 <fat32_read_chain+0x130>
   82698:	aa1803e3 	mov	x3, x24
   8269c:	aa1503e2 	mov	x2, x21
   826a0:	d0000001 	adrp	x1, 84000 <__func__.3144+0x458>
   826a4:	91282021 	add	x1, x1, #0xa08
   826a8:	d0000000 	adrp	x0, 84000 <__func__.3144+0x458>
   826ac:	91208000 	add	x0, x0, #0x820
   826b0:	9100c000 	add	x0, x0, #0x30
   826b4:	97fffd95 	bl	81d08 <__debug>
   826b8:	17ffffa7 	b	82554 <fat32_read_chain+0x9c>
   826bc:	d2800015 	mov	x21, #0x0                   	// #0
   826c0:	17ffffa5 	b	82554 <fat32_read_chain+0x9c>

00000000000826c4 <fat32_parse_name>:
   826c4:	a9b97bfd 	stp	x29, x30, [sp, #-112]!
   826c8:	910003fd 	mov	x29, sp
   826cc:	f9000ff4 	str	x20, [sp, #24]
   826d0:	a902dff6 	stp	x22, x23, [sp, #40]
   826d4:	aa0003f4 	mov	x20, x0
   826d8:	aa0103f7 	mov	x23, x1
   826dc:	39402c00 	ldrb	w0, [x0, #11]
   826e0:	71003c1f 	cmp	w0, #0xf
   826e4:	54000620 	b.eq	827a8 <fat32_parse_name+0xe4>  // b.none
   826e8:	39400280 	ldrb	w0, [x20]
   826ec:	7103941f 	cmp	w0, #0xe5
   826f0:	54000c80 	b.eq	82880 <fat32_parse_name+0x1bc>  // b.none
   826f4:	f9000bb3 	str	x19, [x29, #16]
   826f8:	f90013b5 	str	x21, [x29, #32]
   826fc:	34000c80 	cbz	w0, 8288c <fat32_parse_name+0x1c8>
   82700:	d2800020 	mov	x0, #0x1                   	// #1
   82704:	2a0003f3 	mov	w19, w0
   82708:	38606a81 	ldrb	w1, [x20, x0]
   8270c:	340000a1 	cbz	w1, 82720 <fat32_parse_name+0x5c>
   82710:	11000413 	add	w19, w0, #0x1
   82714:	91000400 	add	x0, x0, #0x1
   82718:	f100201f 	cmp	x0, #0x8
   8271c:	54ffff41 	b.ne	82704 <fat32_parse_name+0x40>  // b.any
   82720:	93407e75 	sxtw	x21, w19
   82724:	aa1503e2 	mov	x2, x21
   82728:	aa1403e1 	mov	x1, x20
   8272c:	aa1703e0 	mov	x0, x23
   82730:	97fff66c 	bl	800e0 <strncpy>
   82734:	39402280 	ldrb	w0, [x20, #8]
   82738:	34000b60 	cbz	w0, 828a4 <fat32_parse_name+0x1e0>
   8273c:	528005c0 	mov	w0, #0x2e                  	// #46
   82740:	3833cae0 	strb	w0, [x23, w19, sxtw]
   82744:	39400280 	ldrb	w0, [x20]
   82748:	34000aa0 	cbz	w0, 8289c <fat32_parse_name+0x1d8>
   8274c:	39400680 	ldrb	w0, [x20, #1]
   82750:	34000a20 	cbz	w0, 82894 <fat32_parse_name+0x1d0>
   82754:	39400a80 	ldrb	w0, [x20, #2]
   82758:	7100001f 	cmp	w0, #0x0
   8275c:	1a9f07f6 	cset	w22, ne  // ne = any
   82760:	11000ad6 	add	w22, w22, #0x2
   82764:	910006b5 	add	x21, x21, #0x1
   82768:	8b1502f5 	add	x21, x23, x21
   8276c:	d2800062 	mov	x2, #0x3                   	// #3
   82770:	91002281 	add	x1, x20, #0x8
   82774:	9101a3a0 	add	x0, x29, #0x68
   82778:	97fff676 	bl	80150 <utf16ntoascii>
   8277c:	93407ec2 	sxtw	x2, w22
   82780:	aa0003e1 	mov	x1, x0
   82784:	aa1503e0 	mov	x0, x21
   82788:	97fff656 	bl	800e0 <strncpy>
   8278c:	11000673 	add	w19, w19, #0x1
   82790:	0b160276 	add	w22, w19, w22
   82794:	3836caff 	strb	wzr, [x23, w22, sxtw]
   82798:	d2800016 	mov	x22, #0x0                   	// #0
   8279c:	f9400bb3 	ldr	x19, [x29, #16]
   827a0:	f94013b5 	ldr	x21, [x29, #32]
   827a4:	14000032 	b	8286c <fat32_parse_name+0x1a8>
   827a8:	f9000bb3 	str	x19, [x29, #16]
   827ac:	f90013b5 	str	x21, [x29, #32]
   827b0:	a903e7b8 	stp	x24, x25, [x29, #56]
   827b4:	a904efba 	stp	x26, x27, [x29, #72]
   827b8:	91000694 	add	x20, x20, #0x1
   827bc:	d2800016 	mov	x22, #0x0                   	// #0
   827c0:	528001bb 	mov	w27, #0xd                   	// #13
   827c4:	9101a3b5 	add	x21, x29, #0x68
   827c8:	d280015a 	mov	x26, #0xa                   	// #10
   827cc:	d28000b9 	mov	x25, #0x5                   	// #5
   827d0:	d2800198 	mov	x24, #0xc                   	// #12
   827d4:	385ff293 	ldurb	w19, [x20, #-1]
   827d8:	12001273 	and	w19, w19, #0x1f
   827dc:	51000673 	sub	w19, w19, #0x1
   827e0:	1b1b7e73 	mul	w19, w19, w27
   827e4:	8b33c2f3 	add	x19, x23, w19, sxtw
   827e8:	aa1a03e2 	mov	x2, x26
   827ec:	aa1403e1 	mov	x1, x20
   827f0:	aa1503e0 	mov	x0, x21
   827f4:	97fff657 	bl	80150 <utf16ntoascii>
   827f8:	aa1903e2 	mov	x2, x25
   827fc:	aa0003e1 	mov	x1, x0
   82800:	aa1303e0 	mov	x0, x19
   82804:	97fff637 	bl	800e0 <strncpy>
   82808:	aa1803e2 	mov	x2, x24
   8280c:	91003681 	add	x1, x20, #0xd
   82810:	aa1503e0 	mov	x0, x21
   82814:	97fff64f 	bl	80150 <utf16ntoascii>
   82818:	d28000c2 	mov	x2, #0x6                   	// #6
   8281c:	aa0003e1 	mov	x1, x0
   82820:	91001660 	add	x0, x19, #0x5
   82824:	97fff62f 	bl	800e0 <strncpy>
   82828:	d2800082 	mov	x2, #0x4                   	// #4
   8282c:	91006e81 	add	x1, x20, #0x1b
   82830:	aa1503e0 	mov	x0, x21
   82834:	97fff647 	bl	80150 <utf16ntoascii>
   82838:	d2800042 	mov	x2, #0x2                   	// #2
   8283c:	aa0003e1 	mov	x1, x0
   82840:	91002e60 	add	x0, x19, #0xb
   82844:	97fff627 	bl	800e0 <strncpy>
   82848:	910006d6 	add	x22, x22, #0x1
   8284c:	91008294 	add	x20, x20, #0x20
   82850:	39402a80 	ldrb	w0, [x20, #10]
   82854:	71003c1f 	cmp	w0, #0xf
   82858:	54fffbe0 	b.eq	827d4 <fat32_parse_name+0x110>  // b.none
   8285c:	f9400bb3 	ldr	x19, [x29, #16]
   82860:	f94013b5 	ldr	x21, [x29, #32]
   82864:	a943e7b8 	ldp	x24, x25, [x29, #56]
   82868:	a944efba 	ldp	x26, x27, [x29, #72]
   8286c:	aa1603e0 	mov	x0, x22
   82870:	f9400ff4 	ldr	x20, [sp, #24]
   82874:	a942dff6 	ldp	x22, x23, [sp, #40]
   82878:	a8c77bfd 	ldp	x29, x30, [sp], #112
   8287c:	d65f03c0 	ret
   82880:	3900003f 	strb	wzr, [x1]
   82884:	d2800016 	mov	x22, #0x0                   	// #0
   82888:	17fffff9 	b	8286c <fat32_parse_name+0x1a8>
   8288c:	52800013 	mov	w19, #0x0                   	// #0
   82890:	17ffffa4 	b	82720 <fat32_parse_name+0x5c>
   82894:	52800036 	mov	w22, #0x1                   	// #1
   82898:	17ffffb3 	b	82764 <fat32_parse_name+0xa0>
   8289c:	52800016 	mov	w22, #0x0                   	// #0
   828a0:	17ffffb1 	b	82764 <fat32_parse_name+0xa0>
   828a4:	3833caff 	strb	wzr, [x23, w19, sxtw]
   828a8:	d2800016 	mov	x22, #0x0                   	// #0
   828ac:	f9400bb3 	ldr	x19, [x29, #16]
   828b0:	f94013b5 	ldr	x21, [x29, #32]
   828b4:	17ffffee 	b	8286c <fat32_parse_name+0x1a8>

00000000000828b8 <fat32_find_entry>:
   828b8:	d10943ff 	sub	sp, sp, #0x250
   828bc:	a9007bfd 	stp	x29, x30, [sp]
   828c0:	910003fd 	mov	x29, sp
   828c4:	f9000bf3 	str	x19, [sp, #16]
   828c8:	f9001ff8 	str	x24, [sp, #56]
   828cc:	aa0003f8 	mov	x24, x0
   828d0:	b4000662 	cbz	x2, 8299c <fat32_find_entry+0xe4>
   828d4:	a901d7b4 	stp	x20, x21, [x29, #24]
   828d8:	a902dfb6 	stp	x22, x23, [x29, #40]
   828dc:	a9046bb9 	stp	x25, x26, [x29, #64]
   828e0:	aa0103f7 	mov	x23, x1
   828e4:	aa0203f6 	mov	x22, x2
   828e8:	d2800014 	mov	x20, #0x0                   	// #0
   828ec:	910143b5 	add	x21, x29, #0x50
   828f0:	d000001a 	adrp	x26, 84000 <__func__.3144+0x458>
   828f4:	d0000019 	adrp	x25, 84000 <__func__.3144+0x458>
   828f8:	91208339 	add	x25, x25, #0x820
   828fc:	91012339 	add	x25, x25, #0x48
   82900:	1400000d 	b	82934 <fat32_find_entry+0x7c>
   82904:	aa1503e2 	mov	x2, x21
   82908:	9128e341 	add	x1, x26, #0xa38
   8290c:	aa1903e0 	mov	x0, x25
   82910:	97fffcfe 	bl	81d08 <__debug>
   82914:	aa1503e1 	mov	x1, x21
   82918:	aa1803e0 	mov	x0, x24
   8291c:	97fff5d5 	bl	80070 <strcmp>
   82920:	340001c0 	cbz	w0, 82958 <fat32_find_entry+0xa0>
   82924:	8b140273 	add	x19, x19, x20
   82928:	91000674 	add	x20, x19, #0x1
   8292c:	eb16029f 	cmp	x20, x22
   82930:	54000302 	b.cs	82990 <fat32_find_entry+0xd8>  // b.hs, b.nlast
   82934:	aa1503e1 	mov	x1, x21
   82938:	8b1416e0 	add	x0, x23, x20, lsl #5
   8293c:	97ffff62 	bl	826c4 <fat32_parse_name>
   82940:	aa0003f3 	mov	x19, x0
   82944:	394143a0 	ldrb	w0, [x29, #80]
   82948:	35fffde0 	cbnz	w0, 82904 <fat32_find_entry+0x4c>
   8294c:	8b140273 	add	x19, x19, x20
   82950:	91000674 	add	x20, x19, #0x1
   82954:	17fffff6 	b	8292c <fat32_find_entry+0x74>
   82958:	8b140273 	add	x19, x19, x20
   8295c:	8b1316f3 	add	x19, x23, x19, lsl #5
   82960:	aa1303e3 	mov	x3, x19
   82964:	aa1803e2 	mov	x2, x24
   82968:	d0000001 	adrp	x1, 84000 <__func__.3144+0x458>
   8296c:	91294021 	add	x1, x1, #0xa50
   82970:	d0000000 	adrp	x0, 84000 <__func__.3144+0x458>
   82974:	91208000 	add	x0, x0, #0x820
   82978:	91012000 	add	x0, x0, #0x48
   8297c:	97fffce3 	bl	81d08 <__debug>
   82980:	a941d7b4 	ldp	x20, x21, [x29, #24]
   82984:	a942dfb6 	ldp	x22, x23, [x29, #40]
   82988:	a9446bb9 	ldp	x25, x26, [x29, #64]
   8298c:	1400000c 	b	829bc <fat32_find_entry+0x104>
   82990:	a941d7b4 	ldp	x20, x21, [x29, #24]
   82994:	a942dfb6 	ldp	x22, x23, [x29, #40]
   82998:	a9446bb9 	ldp	x25, x26, [x29, #64]
   8299c:	aa1803e2 	mov	x2, x24
   829a0:	d0000001 	adrp	x1, 84000 <__func__.3144+0x458>
   829a4:	9129c021 	add	x1, x1, #0xa70
   829a8:	d0000000 	adrp	x0, 84000 <__func__.3144+0x458>
   829ac:	91208000 	add	x0, x0, #0x820
   829b0:	91012000 	add	x0, x0, #0x48
   829b4:	97fffcd5 	bl	81d08 <__debug>
   829b8:	d2800013 	mov	x19, #0x0                   	// #0
   829bc:	aa1303e0 	mov	x0, x19
   829c0:	f9400bf3 	ldr	x19, [sp, #16]
   829c4:	f9401ff8 	ldr	x24, [sp, #56]
   829c8:	a9407bfd 	ldp	x29, x30, [sp]
   829cc:	910943ff 	add	sp, sp, #0x250
   829d0:	d65f03c0 	ret

00000000000829d4 <fat32_open>:
   829d4:	a9b87bfd 	stp	x29, x30, [sp, #-128]!
   829d8:	910003fd 	mov	x29, sp
   829dc:	f9000bf3 	str	x19, [sp, #16]
   829e0:	f90017f6 	str	x22, [sp, #40]
   829e4:	f9001ff8 	str	x24, [sp, #56]
   829e8:	aa0003f6 	mov	x22, x0
   829ec:	aa0103f3 	mov	x19, x1
   829f0:	f9003fbf 	str	xzr, [x29, #120]
   829f4:	d2800402 	mov	x2, #0x20                  	// #32
   829f8:	52800001 	mov	w1, #0x0                   	// #0
   829fc:	910163a0 	add	x0, x29, #0x58
   82a00:	97fff646 	bl	80318 <memset>
   82a04:	b4000353 	cbz	x19, 82a6c <fat32_open+0x98>
   82a08:	aa1303e0 	mov	x0, x19
   82a0c:	97fff591 	bl	80050 <strlen>
   82a10:	91000400 	add	x0, x0, #0x1
   82a14:	97fff753 	bl	80760 <malloc>
   82a18:	aa0003f8 	mov	x24, x0
   82a1c:	b40003c0 	cbz	x0, 82a94 <fat32_open+0xc0>
   82a20:	aa1303e1 	mov	x1, x19
   82a24:	aa1803e0 	mov	x0, x24
   82a28:	97fff5a4 	bl	800b8 <strcpy>
   82a2c:	b0000001 	adrp	x1, 83000 <fat32_open+0x62c>
   82a30:	91314021 	add	x1, x1, #0xc50
   82a34:	aa1803e0 	mov	x0, x24
   82a38:	97fff5f8 	bl	80218 <strtok>
   82a3c:	aa0003f3 	mov	x19, x0
   82a40:	b4000ee0 	cbz	x0, 82c1c <fat32_open+0x248>
   82a44:	a901d7b4 	stp	x20, x21, [x29, #24]
   82a48:	f9001bb7 	str	x23, [x29, #48]
   82a4c:	f90023b9 	str	x25, [x29, #64]
   82a50:	52800021 	mov	w1, #0x1                   	// #1
   82a54:	9101e3b7 	add	x23, x29, #0x78
   82a58:	d0000019 	adrp	x25, 84000 <__func__.3144+0x458>
   82a5c:	d0000015 	adrp	x21, 84000 <__func__.3144+0x458>
   82a60:	912082b5 	add	x21, x21, #0x820
   82a64:	910182b5 	add	x21, x21, #0x60
   82a68:	1400002f 	b	82b24 <fat32_open+0x150>
   82a6c:	d0000003 	adrp	x3, 84000 <__func__.3144+0x458>
   82a70:	912a4063 	add	x3, x3, #0xa90
   82a74:	d0000002 	adrp	x2, 84000 <__func__.3144+0x458>
   82a78:	91208042 	add	x2, x2, #0x820
   82a7c:	91018042 	add	x2, x2, #0x60
   82a80:	52802881 	mov	w1, #0x144                 	// #324
   82a84:	d0000000 	adrp	x0, 84000 <__func__.3144+0x458>
   82a88:	91248000 	add	x0, x0, #0x920
   82a8c:	97fffc53 	bl	81bd8 <__panic>
   82a90:	17ffffde 	b	82a08 <fat32_open+0x34>
   82a94:	d0000003 	adrp	x3, 84000 <__func__.3144+0x458>
   82a98:	912a8063 	add	x3, x3, #0xaa0
   82a9c:	d0000002 	adrp	x2, 84000 <__func__.3144+0x458>
   82aa0:	91208042 	add	x2, x2, #0x820
   82aa4:	91018042 	add	x2, x2, #0x60
   82aa8:	52802941 	mov	w1, #0x14a                 	// #330
   82aac:	d0000000 	adrp	x0, 84000 <__func__.3144+0x458>
   82ab0:	91248000 	add	x0, x0, #0x920
   82ab4:	97fffc49 	bl	81bd8 <__panic>
   82ab8:	17ffffda 	b	82a20 <fat32_open+0x4c>
   82abc:	aa1703e2 	mov	x2, x23
   82ac0:	b940b2c1 	ldr	w1, [x22, #176]
   82ac4:	aa1603e0 	mov	x0, x22
   82ac8:	97fffe7c 	bl	824b8 <fat32_read_chain>
   82acc:	d345fc14 	lsr	x20, x0, #5
   82ad0:	912ae321 	add	x1, x25, #0xab8
   82ad4:	aa1503e0 	mov	x0, x21
   82ad8:	97fffc8c 	bl	81d08 <__debug>
   82adc:	aa1303e2 	mov	x2, x19
   82ae0:	d0000001 	adrp	x1, 84000 <__func__.3144+0x458>
   82ae4:	912b4021 	add	x1, x1, #0xad0
   82ae8:	aa1503e0 	mov	x0, x21
   82aec:	97fffc87 	bl	81d08 <__debug>
   82af0:	aa1403e2 	mov	x2, x20
   82af4:	f9403fa1 	ldr	x1, [x29, #120]
   82af8:	aa1303e0 	mov	x0, x19
   
   
   
   
   
   
   
   82afc:	97ffff6f 	bl	828b8 <fat32_find_entry>
   82b00:	aa0003f4 	mov	x20, x0
   82b04:	b40006e0 	cbz	x0, 82be0 <fat32_open+0x20c>
   82b08:	b0000001 	adrp	x1, 83000 <fat32_open+0x62c>
   82b0c:	91314021 	add	x1, x1, #0xc50					// x1 = "/"
   82b10:	d2800000 	mov	x0, #0x0                   	// #0
   82b14:	97fff5c1 	bl	80218 <strtok>					// strtok(NULL, "/") should return NULL
   82b18:	aa0003f3 	mov	x19, x0						// x19 = x0 = 
   82b1c:	52800001 	mov	w1, #0x0                   	// #0
   82b20:	b4000900 	cbz	x0, 82c40 <fat32_open+0x26c>
   82b24:	35fffcc1 	cbnz	w1, 82abc <fat32_open+0xe8>
   82b28:	39402e80 	ldrb	w0, [x20, #11]
   82b2c:	36200500 	tbz	w0, #4, 82bcc <fat32_open+0x1f8>
   82b30:	a9400680 	ldp	x0, x1, [x20]
   82b34:	a90587a0 	stp	x0, x1, [x29, #88]
   82b38:	a9410680 	ldp	x0, x1, [x20, #16]
   82b3c:	a90687a0 	stp	x0, x1, [x29, #104]
   82b40:	f9403fa0 	ldr	x0, [x29, #120]
   82b44:	97fff74d 	bl	80878 <free>
   82b48:	7940dba1 	ldrh	w1, [x29, #108]
   82b4c:	7940e7a0 	ldrh	w0, [x29, #114]
   82b50:	aa1703e2 	mov	x2, x23
   82b54:	0b014001 	add	w1, w0, w1, lsl #16
   82b58:	aa1603e0 	mov	x0, x22
   82b5c:	97fffe57 	bl	824b8 <fat32_read_chain>
   82b60:	d345fc14 	lsr	x20, x0, #5
   82b64:	17ffffde 	b	82adc <fat32_open+0x108>
   82b68:	7940dba0 	ldrh	w0, [x29, #108]
   82b6c:	7940e7a1 	ldrh	w1, [x29, #114]
   82b70:	0b004020 	add	w0, w1, w0, lsl #16
   82b74:	b9000260 	str	w0, [x19]
   82b78:	39418fa0 	ldrb	w0, [x29, #99]
   82b7c:	39004260 	strb	w0, [x19, #16]
   82b80:	f9000676 	str	x22, [x19, #8]
   82b84:	394197a0 	ldrb	w0, [x29, #101]
   82b88:	39004660 	strb	w0, [x19, #17]
   82b8c:	7940cfa0 	ldrh	w0, [x29, #102]
   82b90:	79002660 	strh	w0, [x19, #18]
   82b94:	7940d3a0 	ldrh	w0, [x29, #104]
   82b98:	79002a60 	strh	w0, [x19, #20]
   82b9c:	7940d7a0 	ldrh	w0, [x29, #106]
   82ba0:	79002e60 	strh	w0, [x19, #22]
   82ba4:	7940dfa0 	ldrh	w0, [x29, #110]
   82ba8:	79003260 	strh	w0, [x19, #24]
   82bac:	7940e3a0 	ldrh	w0, [x29, #112]
   82bb0:	79003660 	strh	w0, [x19, #26]
   82bb4:	b94077a0 	ldr	w0, [x29, #116]
   82bb8:	b9001e60 	str	w0, [x19, #28]
   82bbc:	a941d7b4 	ldp	x20, x21, [x29, #24]
   82bc0:	f9401bb7 	ldr	x23, [x29, #48]
   82bc4:	f94023b9 	ldr	x25, [x29, #64]
   82bc8:	1400000a 	b	82bf0 <fat32_open+0x21c>
   82bcc:	d2800013 	mov	x19, #0x0                   	// #0
   82bd0:	a941d7b4 	ldp	x20, x21, [x29, #24]
   82bd4:	f9401bb7 	ldr	x23, [x29, #48]
   82bd8:	f94023b9 	ldr	x25, [x29, #64]
   82bdc:	14000005 	b	82bf0 <fat32_open+0x21c>
   82be0:	d2800013 	mov	x19, #0x0                   	// #0
   82be4:	a941d7b4 	ldp	x20, x21, [x29, #24]
   82be8:	f9401bb7 	ldr	x23, [x29, #48]
   82bec:	f94023b9 	ldr	x25, [x29, #64]
   82bf0:	aa1803e0 	mov	x0, x24
   82bf4:	97fff721 	bl	80878 <free>
   82bf8:	f9403fa0 	ldr	x0, [x29, #120]
   82bfc:	b4000040 	cbz	x0, 82c04 <fat32_open+0x230>
   82c00:	97fff71e 	bl	80878 <free>
   82c04:	aa1303e0 	mov	x0, x19
   82c08:	f9400bf3 	ldr	x19, [sp, #16]
   82c0c:	f94017f6 	ldr	x22, [sp, #40]
   82c10:	f9401ff8 	ldr	x24, [sp, #56]
   82c14:	a8c87bfd 	ldp	x29, x30, [sp], #128
   82c18:	d65f03c0 	ret
   82c1c:	d2800400 	mov	x0, #0x20                  	// #32
   82c20:	97fff6d0 	bl	80760 <malloc>
   82c24:	aa0003f3 	mov	x19, x0
   82c28:	b4fffe40 	cbz	x0, 82bf0 <fat32_open+0x21c>
   82c2c:	b940b2c0 	ldr	w0, [x22, #176]
   82c30:	b9000260 	str	w0, [x19]
   82c34:	52800200 	mov	w0, #0x10                  	// #16
   82c38:	39004260 	strb	w0, [x19, #16]
   82c3c:	17ffffed 	b	82bf0 <fat32_open+0x21c>
   82c40:	d2800400 	mov	x0, #0x20                  	// #32
   82c44:	97fff6c7 	bl	80760 <malloc>
   82c48:	aa0003f3 	mov	x19, x0
   82c4c:	b5fff8e0 	cbnz	x0, 82b68 <fat32_open+0x194>
   82c50:	a941d7b4 	ldp	x20, x21, [x29, #24]
   82c54:	f9401bb7 	ldr	x23, [x29, #48]
   82c58:	f94023b9 	ldr	x25, [x29, #64]
   82c5c:	17ffffe5 	b	82bf0 <fat32_open+0x21c>
   82c60:	a9bc7bfd 	stp	x29, x30, [sp, #-64]!
   82c64:	910003fd 	mov	x29, sp
   82c68:	a90153f3 	stp	x19, x20, [sp, #16]
   82c6c:	2a0003f4 	mov	w20, w0
   82c70:	a9025bf5 	stp	x21, x22, [sp, #32]
   82c74:	52942413 	mov	w19, #0xa120                	// #41248
   82c78:	72a000f3 	movk	w19, #0x7, lsl #16
   82c7c:	d2800495 	mov	x21, #0x24                  	// #36
   82c80:	f2a7e615 	movk	x21, #0x3f30, lsl #16
   82c84:	d2800616 	mov	x22, #0x30                  	// #48
   82c88:	f2a7e616 	movk	x22, #0x3f30, lsl #16
   82c8c:	f9001bf7 	str	x23, [sp, #48]
   82c90:	52900017 	mov	w23, #0x8000                	// #32768
   82c94:	72a02fd7 	movk	w23, #0x17e, lsl #16
   82c98:	b94002a0 	ldr	w0, [x21]
   82c9c:	6a14001f 	tst	w0, w20
   82ca0:	54000180 	b.eq	82cd0 <fat32_open+0x2fc>  // b.none
   82ca4:	b94002c0 	ldr	w0, [x22]
   82ca8:	6a17001f 	tst	w0, w23
   82cac:	54000121 	b.ne	82cd0 <fat32_open+0x2fc>  // b.any
   82cb0:	51000673 	sub	w19, w19, #0x1
   82cb4:	3100067f 	cmn	w19, #0x1
   82cb8:	54000061 	b.ne	82cc4 <fat32_open+0x2f0>  // b.any
   82cbc:	12800020 	mov	w0, #0xfffffffe            	// #-2
   82cc0:	1400000d 	b	82cf4 <fat32_open+0x320>
   82cc4:	52800020 	mov	w0, #0x1                   	// #1
   82cc8:	97fffae2 	bl	81850 <wait_micros>
   82ccc:	17fffff3 	b	82c98 <fat32_open+0x2c4>
   82cd0:	34ffff73 	cbz	w19, 82cbc <fat32_open+0x2e8>
   82cd4:	d2800600 	mov	x0, #0x30                  	// #48
   82cd8:	f2a7e600 	movk	x0, #0x3f30, lsl #16
   82cdc:	b9400001 	ldr	w1, [x0]
   82ce0:	52900000 	mov	w0, #0x8000                	// #32768
   82ce4:	72a02fc0 	movk	w0, #0x17e, lsl #16
   82ce8:	6a00003f 	tst	w1, w0
   82cec:	12800020 	mov	w0, #0xfffffffe            	// #-2
   82cf0:	1a9f1000 	csel	w0, w0, wzr, ne  // ne = any
   82cf4:	a94153f3 	ldp	x19, x20, [sp, #16]
   82cf8:	a9425bf5 	ldp	x21, x22, [sp, #32]
   82cfc:	f9401bf7 	ldr	x23, [sp, #48]
   82d00:	a8c47bfd 	ldp	x29, x30, [sp], #64
   82d04:	d65f03c0 	ret
   82d08:	a9bc7bfd 	stp	x29, x30, [sp, #-64]!
   82d0c:	910003fd 	mov	x29, sp
   82d10:	a90153f3 	stp	x19, x20, [sp, #16]
   82d14:	52884813 	mov	w19, #0x4240                	// #16960
   82d18:	72a001f3 	movk	w19, #0xf, lsl #16
   82d1c:	a9025bf5 	stp	x21, x22, [sp, #32]
   82d20:	52900015 	mov	w21, #0x8000                	// #32768
   82d24:	72a02fd5 	movk	w21, #0x17e, lsl #16
   82d28:	2a150015 	orr	w21, w0, w21
   82d2c:	f9001bf7 	str	x23, [sp, #48]
   82d30:	2a0003f6 	mov	w22, w0
   82d34:	d2800617 	mov	x23, #0x30                  	// #48
   82d38:	f2a7e617 	movk	x23, #0x3f30, lsl #16
   82d3c:	aa1703f4 	mov	x20, x23
   82d40:	b94002e0 	ldr	w0, [x23]
   82d44:	6a15001f 	tst	w0, w21
   82d48:	54000081 	b.ne	82d58 <fat32_open+0x384>  // b.any
   82d4c:	51000673 	sub	w19, w19, #0x1
   82d50:	3100067f 	cmn	w19, #0x1
   82d54:	54000201 	b.ne	82d94 <fat32_open+0x3c0>  // b.any
   82d58:	b9400280 	ldr	w0, [x20]
   82d5c:	7100027f 	cmp	w19, #0x0
   82d60:	5400008d 	b.le	82d70 <fat32_open+0x39c>
   82d64:	52a00221 	mov	w1, #0x110000              	// #1114112
   82d68:	6a01001f 	tst	w0, w1
   82d6c:	540001a0 	b.eq	82da0 <fat32_open+0x3cc>  // b.none
   82d70:	d2800601 	mov	x1, #0x30                  	// #48
   82d74:	f2a7e601 	movk	x1, #0x3f30, lsl #16
   82d78:	b9000020 	str	w0, [x1]
   82d7c:	12800000 	mov	w0, #0xffffffff            	// #-1
   82d80:	a94153f3 	ldp	x19, x20, [sp, #16]
   82d84:	a9425bf5 	ldp	x21, x22, [sp, #32]
   82d88:	f9401bf7 	ldr	x23, [sp, #48]
   82d8c:	a8c47bfd 	ldp	x29, x30, [sp], #64
   82d90:	d65f03c0 	ret
   82d94:	52800020 	mov	w0, #0x1                   	// #1
   82d98:	97fffaae 	bl	81850 <wait_micros>
   82d9c:	17ffffe9 	b	82d40 <fat32_open+0x36c>
   82da0:	52900001 	mov	w1, #0x8000                	// #32768
   82da4:	72a02fc1 	movk	w1, #0x17e, lsl #16
   82da8:	6a01001f 	tst	w0, w1
   82dac:	54000080 	b.eq	82dbc <fat32_open+0x3e8>  // b.none
   82db0:	b9000280 	str	w0, [x20]
   82db4:	12800020 	mov	w0, #0xfffffffe            	// #-2
   82db8:	17fffff2 	b	82d80 <fat32_open+0x3ac>
   82dbc:	52800000 	mov	w0, #0x0                   	// #0
   82dc0:	b9000296 	str	w22, [x20]
   82dc4:	17ffffef 	b	82d80 <fat32_open+0x3ac>
   82dc8:	a9bc7bfd 	stp	x29, x30, [sp, #-64]!
   82dcc:	910003fd 	mov	x29, sp
   82dd0:	a9025bf5 	stp	x21, x22, [sp, #32]
   82dd4:	f0000015 	adrp	x21, 85000 <mem_bin+0x30>
   82dd8:	a90153f3 	stp	x19, x20, [sp, #16]
   82ddc:	2a0103f6 	mov	w22, w1
   82de0:	f900babf 	str	xzr, [x21, #368]
   82de4:	2a0003f3 	mov	w19, w0
   82de8:	f9001bf7 	str	x23, [sp, #48]
   82dec:	aa1503f4 	mov	x20, x21
   82df0:	36f80260 	tbz	w0, #31, 82e3c <fat32_open+0x468>
   82df4:	d0000017 	adrp	x23, 84000 <__func__.3144+0x458>
   82df8:	f947cee1 	ldr	x1, [x23, #3992]
   82dfc:	52a6e042 	mov	w2, #0x37020000            	// #922877952
   82e00:	52a6e000 	mov	w0, #0x37000000            	// #922746880
   82e04:	f100003f 	cmp	x1, #0x0
   82e08:	1a801040 	csel	w0, w2, w0, ne  // ne = any
   82e0c:	97ffffef 	bl	82dc8 <fat32_open+0x3f4>
   82e10:	f947cee1 	ldr	x1, [x23, #3992]
   82e14:	b4000121 	cbz	x1, 82e38 <fat32_open+0x464>
   82e18:	35000100 	cbnz	w0, 82e38 <fat32_open+0x464>
   82e1c:	92800021 	mov	x1, #0xfffffffffffffffe    	// #-2
   82e20:	f900baa1 	str	x1, [x21, #368]
   82e24:	a94153f3 	ldp	x19, x20, [sp, #16]
   82e28:	a9425bf5 	ldp	x21, x22, [sp, #32]
   82e2c:	f9401bf7 	ldr	x23, [sp, #48]
   82e30:	a8c47bfd 	ldp	x29, x30, [sp], #64
   82e34:	d65f03c0 	ret
   82e38:	12007a73 	and	w19, w19, #0x7fffffff
   82e3c:	52800020 	mov	w0, #0x1                   	// #1
   82e40:	97ffff88 	bl	82c60 <fat32_open+0x28c>
   82e44:	340000a0 	cbz	w0, 82e58 <fat32_open+0x484>
   82e48:	92800000 	mov	x0, #0xffffffffffffffff    	// #-1
   82e4c:	f900ba80 	str	x0, [x20, #368]
   82e50:	52800000 	mov	w0, #0x0                   	// #0
   82e54:	17fffff4 	b	82e24 <fat32_open+0x450>
   82e58:	d2800600 	mov	x0, #0x30                  	// #48
   82e5c:	f2a7e600 	movk	x0, #0x3f30, lsl #16
   82e60:	b9400001 	ldr	w1, [x0]
   82e64:	b9000001 	str	w1, [x0]
   82e68:	d2800100 	mov	x0, #0x8                   	// #8
   82e6c:	f2a7e600 	movk	x0, #0x3f30, lsl #16
   82e70:	b9000016 	str	w22, [x0]
   82e74:	b9000413 	str	w19, [x0, #4]
   82e78:	52a6e000 	mov	w0, #0x37000000            	// #922746880
   82e7c:	6b00027f 	cmp	w19, w0
   82e80:	52a10040 	mov	w0, #0x8020000             	// #134348800
   82e84:	1a9f17f5 	cset	w21, eq  // eq = none
   82e88:	6b00027f 	cmp	w19, w0
   82e8c:	1a9f16a0 	csinc	w0, w21, wzr, ne  // ne = any
   82e90:	34000060 	cbz	w0, 82e9c <fat32_open+0x4c8>
   82e94:	52800c80 	mov	w0, #0x64                  	// #100
   82e98:	97fffa6e 	bl	81850 <wait_micros>
   82e9c:	52800020 	mov	w0, #0x1                   	// #1
   82ea0:	97ffff9a 	bl	82d08 <fat32_open+0x334>
   82ea4:	34000060 	cbz	w0, 82eb0 <fat32_open+0x4dc>
   82ea8:	93407c00 	sxtw	x0, w0
   82eac:	17ffffe8 	b	82e4c <fat32_open+0x478>
   82eb0:	d2800201 	mov	x1, #0x10                  	// #16
   82eb4:	f2a7e601 	movk	x1, #0x3f30, lsl #16
   82eb8:	7100027f 	cmp	w19, #0x0
   82ebc:	b9400021 	ldr	w1, [x1]
   82ec0:	1a9f16b5 	csinc	w21, w21, wzr, ne  // ne = any
   82ec4:	35fffb15 	cbnz	w21, 82e24 <fat32_open+0x450>
   82ec8:	52a6e040 	mov	w0, #0x37020000            	// #922877952
   82ecc:	6b00027f 	cmp	w19, w0
   82ed0:	54000061 	b.ne	82edc <fat32_open+0x508>  // b.any
   82ed4:	121b0020 	and	w0, w1, #0x20
   82ed8:	17ffffd3 	b	82e24 <fat32_open+0x450>
   82edc:	52a10040 	mov	w0, #0x8020000             	// #134348800
   82ee0:	6b00027f 	cmp	w19, w0
   82ee4:	540000a1 	b.ne	82ef8 <fat32_open+0x524>  // b.any
   82ee8:	6b16003f 	cmp	w1, w22
   82eec:	12800020 	mov	w0, #0xfffffffe            	// #-2
   82ef0:	1a8003e0 	csel	w0, wzr, w0, eq  // eq = none
   82ef4:	17ffffcc 	b	82e24 <fat32_open+0x450>
   82ef8:	52a04020 	mov	w0, #0x2010000             	// #33619968
   82efc:	6b00027f 	cmp	w19, w0
   82f00:	540001c1 	b.ne	82f38 <fat32_open+0x564>  // b.any
   82f04:	d2800380 	mov	x0, #0x1c                  	// #28
   82f08:	f2a7e600 	movk	x0, #0x3f30, lsl #16
   82f0c:	d2800282 	mov	x2, #0x14                  	// #20
   82f10:	f2a7e602 	movk	x2, #0x3f30, lsl #16
   82f14:	b9400003 	ldr	w3, [x0]
   82f18:	d2800300 	mov	x0, #0x18                  	// #24
   82f1c:	f2a7e600 	movk	x0, #0x3f30, lsl #16
   82f20:	2a030021 	orr	w1, w1, w3
   82f24:	b9400000 	ldr	w0, [x0]
   82f28:	b9400042 	ldr	w2, [x2]
   82f2c:	2a020000 	orr	w0, w0, w2
   82f30:	2a000020 	orr	w0, w1, w0
   82f34:	17ffffbc 	b	82e24 <fat32_open+0x450>
   82f38:	52a06040 	mov	w0, #0x3020000             	// #50462720
   82f3c:	6b00027f 	cmp	w19, w0
   82f40:	540001a1 	b.ne	82f74 <fat32_open+0x5a0>  // b.any
   82f44:	53185c20 	lsl	w0, w1, #8
   82f48:	531a6422 	lsl	w2, w1, #6
   82f4c:	120a0003 	and	w3, w0, #0x400000
   82f50:	120d0042 	and	w2, w2, #0x80000
   82f54:	2a030042 	orr	w2, w2, w3
   82f58:	12090003 	and	w3, w0, #0x800000
   82f5c:	121e0020 	and	w0, w1, #0x4
   82f60:	2a030000 	orr	w0, w0, w3
   82f64:	2a020000 	orr	w0, w0, w2
   82f68:	f900ba80 	str	x0, [x20, #368]
   82f6c:	12103c20 	and	w0, w1, #0xffff0000
   82f70:	17ffffad 	b	82e24 <fat32_open+0x450>
   82f74:	52980080 	mov	w0, #0xc004                	// #49156
   82f78:	72bfff20 	movk	w0, #0xfff9, lsl #16
   82f7c:	0a000020 	and	w0, w1, w0
   82f80:	17ffffa9 	b	82e24 <fat32_open+0x450>
   82f84:	a9bd7bfd 	stp	x29, x30, [sp, #-48]!
   82f88:	910003fd 	mov	x29, sp
   82f8c:	a90153f3 	stp	x19, x20, [sp, #16]
   82f90:	52990d53 	mov	w19, #0xc86a                	// #51306
   82f94:	72a04f73 	movk	w19, #0x27b, lsl #16
   82f98:	5290d414 	mov	w20, #0x86a0                	// #34464
   82f9c:	72a00034 	movk	w20, #0x1, lsl #16
   82fa0:	1ac00a73 	udiv	w19, w19, w0
   82fa4:	f90013f5 	str	x21, [sp, #32]
   82fa8:	d2800495 	mov	x21, #0x24                  	// #36
   82fac:	f2a7e615 	movk	x21, #0x3f30, lsl #16
   82fb0:	b94002a0 	ldr	w0, [x21]
   82fb4:	f240041f 	tst	x0, #0x3
   82fb8:	54000180 	b.eq	82fe8 <fat32_open+0x614>  // b.none
   82fbc:	51000694 	sub	w20, w20, #0x1
   82fc0:	3100069f 	cmn	w20, #0x1
   82fc4:	540000c1 	b.ne	82fdc <fat32_open+0x608>  // b.any
   82fc8:	12800020 	mov	w0, #0xfffffffe            	// #-2
   82fcc:	a94153f3 	ldp	x19, x20, [sp, #16]
   82fd0:	f94013f5 	ldr	x21, [sp, #32]
   82fd4:	a8c37bfd 	ldp	x29, x30, [sp], #48
   82fd8:	d65f03c0 	ret
   82fdc:	52800020 	mov	w0, #0x1                   	// #1
   82fe0:	97fffa1c 	bl	81850 <wait_micros>
   82fe4:	17fffff3 	b	82fb0 <fat32_open+0x5dc>
   82fe8:	34ffff14 	cbz	w20, 82fc8 <fat32_open+0x5f4>
   82fec:	d2800581 	mov	x1, #0x2c                  	// #44
   82ff0:	f2a7e601 	movk	x1, #0x3f30, lsl #16
   82ff4:	b9400020 	ldr	w0, [x1]
   82ff8:	121d7800 	and	w0, w0, #0xfffffffb
   82ffc:	b9000020 	str	w0, [x1]
   83000:	52800140 	mov	w0, #0xa                   	// #10
   83004:	97fffa13 	bl	81850 <wait_micros>
   83008:	71000660 	subs	w0, w19, #0x1
   8300c:	540001a0 	b.eq	83040 <fat32_open+0x66c>  // b.none
   83010:	53081c01 	lsl	w1, w0, #24
   83014:	72040c3f 	tst	w1, #0xf0000000
   83018:	54000521 	b.ne	830bc <fat32_open+0x6e8>  // b.any
   8301c:	53040c01 	lsl	w1, w0, #28
   83020:	52800080 	mov	w0, #0x4                   	// #4
   83024:	7202043f 	tst	w1, #0xc0000000
   83028:	54000061 	b.ne	83034 <fat32_open+0x660>  // b.any
   8302c:	531e7421 	lsl	w1, w1, #2
   83030:	51000800 	sub	w0, w0, #0x2
   83034:	2a2103e1 	mvn	w1, w1
   83038:	4b417c00 	sub	w0, w0, w1, lsr #31
   8303c:	51000400 	sub	w0, w0, #0x1
   83040:	b0000001 	adrp	x1, 84000 <__func__.3144+0x458>
   83044:	f947d021 	ldr	x1, [x1, #4000]
   83048:	f100043f 	cmp	x1, #0x1
   8304c:	54000068 	b.hi	83058 <fat32_open+0x684>  // b.pmore
   83050:	52800033 	mov	w19, #0x1                   	// #1
   83054:	1ac02273 	lsl	w19, w19, w0
   83058:	d2800594 	mov	x20, #0x2c                  	// #44
   8305c:	f2a7e614 	movk	x20, #0x3f30, lsl #16
   83060:	71000a7f 	cmp	w19, #0x2
   83064:	52800041 	mov	w1, #0x2                   	// #2
   83068:	b9400280 	ldr	w0, [x20]
   8306c:	1a812273 	csel	w19, w19, w1, cs  // cs = hs, nlast
   83070:	12105400 	and	w0, w0, #0xffff003f
   83074:	2a132013 	orr	w19, w0, w19, lsl #8
   83078:	b9000293 	str	w19, [x20]
   8307c:	52800140 	mov	w0, #0xa                   	// #10
   83080:	5284e213 	mov	w19, #0x2710                	// #10000
   83084:	97fff9f3 	bl	81850 <wait_micros>
   83088:	b9400280 	ldr	w0, [x20]
   8308c:	321e0000 	orr	w0, w0, #0x4
   83090:	b9000280 	str	w0, [x20]
   83094:	52800140 	mov	w0, #0xa                   	// #10
   83098:	97fff9ee 	bl	81850 <wait_micros>
   8309c:	b9400280 	ldr	w0, [x20]
   830a0:	37080120 	tbnz	w0, #1, 830c4 <fat32_open+0x6f0>
   830a4:	51000673 	sub	w19, w19, #0x1
   830a8:	3100067f 	cmn	w19, #0x1
   830ac:	54fff8e0 	b.eq	82fc8 <fat32_open+0x5f4>  // b.none
   830b0:	52800140 	mov	w0, #0xa                   	// #10
   830b4:	97fff9e7 	bl	81850 <wait_micros>
   830b8:	17fffff9 	b	8309c <fat32_open+0x6c8>
   830bc:	52800100 	mov	w0, #0x8                   	// #8
   830c0:	17ffffd9 	b	83024 <fat32_open+0x650>
   830c4:	34fff833 	cbz	w19, 82fc8 <fat32_open+0x5f4>
   830c8:	52800000 	mov	w0, #0x0                   	// #0
   830cc:	17ffffc0 	b	82fcc <fat32_open+0x5f8>
   830d0:	51000400 	sub	w0, w0, #0x1
   830d4:	3100041f 	cmn	w0, #0x1
   830d8:	54000041 	b.ne	830e0 <fat32_open+0x70c>  // b.any
   830dc:	d65f03c0 	ret
   830e0:	d503201f 	nop
   830e4:	17fffffb 	b	830d0 <fat32_open+0x6fc>

00000000000830e8 <sd_readsector>:
   830e8:	a9bd7bfd 	stp	x29, x30, [sp, #-48]!
   830ec:	910003fd 	mov	x29, sp
   830f0:	a90153f3 	stp	x19, x20, [sp, #16]
   830f4:	a9025bf5 	stp	x21, x22, [sp, #32]
   830f8:	2a0003f5 	mov	w21, w0
   830fc:	aa0103f6 	mov	x22, x1
   83100:	52800040 	mov	w0, #0x2                   	// #2
   83104:	97fffed7 	bl	82c60 <fat32_open+0x28c>
   83108:	34000140 	cbz	w0, 83130 <sd_readsector+0x48>
   8310c:	d0000000 	adrp	x0, 85000 <mem_bin+0x30>
   83110:	92800001 	mov	x1, #0xffffffffffffffff    	// #-1
   83114:	52800013 	mov	w19, #0x0                   	// #0
   83118:	f900b801 	str	x1, [x0, #368]
   8311c:	2a1303e0 	mov	w0, w19
   83120:	a94153f3 	ldp	x19, x20, [sp, #16]
   83124:	a9425bf5 	ldp	x21, x22, [sp, #32]
   83128:	a8c37bfd 	ldp	x29, x30, [sp], #48
   8312c:	d65f03c0 	ret
   83130:	2a0003f3 	mov	w19, w0
   83134:	b0000000 	adrp	x0, 84000 <__func__.3144+0x458>
   83138:	913e6001 	add	x1, x0, #0xf98
   8313c:	aa0003f4 	mov	x20, x0
   83140:	d2800080 	mov	x0, #0x4                   	// #4
   83144:	f2a7e600 	movk	x0, #0x3f30, lsl #16
   83148:	f9400822 	ldr	x2, [x1, #16]
   8314c:	52804001 	mov	w1, #0x200                 	// #512
   83150:	72a00021 	movk	w1, #0x1, lsl #16
   83154:	b9000001 	str	w1, [x0]
   83158:	36000102 	tbz	w2, #0, 83178 <sd_readsector+0x90>
   8315c:	2a1503e1 	mov	w1, w21
   83160:	52800200 	mov	w0, #0x10                  	// #16
   83164:	72a22440 	movk	w0, #0x1122, lsl #16
   83168:	97ffff18 	bl	82dc8 <fat32_open+0x3f4>
   8316c:	d0000000 	adrp	x0, 85000 <mem_bin+0x30>
   83170:	f940b800 	ldr	x0, [x0, #368]
   83174:	b5fffd40 	cbnz	x0, 8311c <sd_readsector+0x34>
   83178:	913e6280 	add	x0, x20, #0xf98
   8317c:	f9400800 	ldr	x0, [x0, #16]
   83180:	37000100 	tbnz	w0, #0, 831a0 <sd_readsector+0xb8>
   83184:	53175aa1 	lsl	w1, w21, #9
   83188:	52800200 	mov	w0, #0x10                  	// #16
   8318c:	72a22440 	movk	w0, #0x1122, lsl #16
   83190:	97ffff0e 	bl	82dc8 <fat32_open+0x3f4>
   83194:	d0000000 	adrp	x0, 85000 <mem_bin+0x30>
   83198:	f940b800 	ldr	x0, [x0, #368]
   8319c:	b5fffc00 	cbnz	x0, 8311c <sd_readsector+0x34>
   831a0:	52800400 	mov	w0, #0x20                  	// #32
   831a4:	97fffed9 	bl	82d08 <fat32_open+0x334>
   831a8:	d2800001 	mov	x1, #0x0                   	// #0
   831ac:	350001c0 	cbnz	w0, 831e4 <sd_readsector+0xfc>
   831b0:	d2800402 	mov	x2, #0x20                  	// #32
   831b4:	f2a7e602 	movk	x2, #0x3f30, lsl #16
   831b8:	b9400040 	ldr	w0, [x2]
   831bc:	b8217ac0 	str	w0, [x22, x1, lsl #2]
   831c0:	91000421 	add	x1, x1, #0x1
   831c4:	f102003f 	cmp	x1, #0x80
   831c8:	54ffff81 	b.ne	831b8 <sd_readsector+0xd0>  // b.any
   831cc:	d0000000 	adrp	x0, 85000 <mem_bin+0x30>
   831d0:	f940b800 	ldr	x0, [x0, #368]
   831d4:	52804013 	mov	w19, #0x200                 	// #512
   831d8:	f100001f 	cmp	x0, #0x0
   831dc:	1a9313f3 	csel	w19, wzr, w19, ne  // ne = any
   831e0:	17ffffcf 	b	8311c <sd_readsector+0x34>
   831e4:	d0000001 	adrp	x1, 85000 <mem_bin+0x30>
   831e8:	93407c00 	sxtw	x0, w0
   831ec:	f900b820 	str	x0, [x1, #368]
   831f0:	17ffffcb 	b	8311c <sd_readsector+0x34>

00000000000831f4 <sd_init>:
   831f4:	a9ba7bfd 	stp	x29, x30, [sp, #-96]!
   831f8:	d2800203 	mov	x3, #0x10                  	// #16
   831fc:	f2a7e403 	movk	x3, #0x3f20, lsl #16
   83200:	910003fd 	mov	x29, sp
   83204:	b9400060 	ldr	w0, [x3]
   83208:	d2801282 	mov	x2, #0x94                  	// #148
   8320c:	f2a7e402 	movk	x2, #0x3f20, lsl #16
   83210:	a90153f3 	stp	x19, x20, [sp, #16]
   83214:	52800044 	mov	w4, #0x2                   	// #2
   83218:	a9025bf5 	stp	x21, x22, [sp, #32]
   8321c:	2a0003e0 	mov	w0, w0
   83220:	a90363f7 	stp	x23, x24, [sp, #48]
   83224:	9268f000 	and	x0, x0, #0xffffffffff1fffff
   83228:	a9046bf9 	stp	x25, x26, [sp, #64]
   8322c:	d2800593 	mov	x19, #0x2c                  	// #44
   83230:	f2a7e613 	movk	x19, #0x3f30, lsl #16
   83234:	f9002bfb 	str	x27, [sp, #80]
   83238:	d284e215 	mov	x21, #0x2710                	// #10000
   8323c:	b9000060 	str	w0, [x3]
   83240:	528012c0 	mov	w0, #0x96                  	// #150
   83244:	b9000044 	str	w4, [x2]
   83248:	97ffffa2 	bl	830d0 <fat32_open+0x6fc>
   8324c:	d2801381 	mov	x1, #0x9c                  	// #156
   83250:	f2a7e401 	movk	x1, #0x3f20, lsl #16
   83254:	52900000 	mov	w0, #0x8000                	// #32768
   83258:	b9000020 	str	w0, [x1]
   8325c:	528012c0 	mov	w0, #0x96                  	// #150
   83260:	97ffff9c 	bl	830d0 <fat32_open+0x6fc>
   83264:	b900005f 	str	wzr, [x2]
   83268:	b900003f 	str	wzr, [x1]
   8326c:	d2800d05 	mov	x5, #0x68                  	// #104
   83270:	f2a7e405 	movk	x5, #0x3f20, lsl #16
   83274:	b94000a0 	ldr	w0, [x5]
   83278:	32110000 	orr	w0, w0, #0x8000
   8327c:	b90000a0 	str	w0, [x5]
   83280:	b9400060 	ldr	w0, [x3]
   83284:	32081400 	orr	w0, w0, #0x3f000000
   83288:	b9000060 	str	w0, [x3]
   8328c:	b9000044 	str	w4, [x2]
   83290:	528012c0 	mov	w0, #0x96                  	// #150
   83294:	97ffff8f 	bl	830d0 <fat32_open+0x6fc>
   83298:	52a00060 	mov	w0, #0x30000               	// #196608
   8329c:	b9000020 	str	w0, [x1]
   832a0:	528012c0 	mov	w0, #0x96                  	// #150
   832a4:	97ffff8b 	bl	830d0 <fat32_open+0x6fc>
   832a8:	b900005f 	str	wzr, [x2]
   832ac:	b900003f 	str	wzr, [x1]
   832b0:	d2800283 	mov	x3, #0x14                  	// #20
   832b4:	f2a7e403 	movk	x3, #0x3f20, lsl #16
   832b8:	b9400060 	ldr	w0, [x3]
   832bc:	32002c00 	orr	w0, w0, #0xfff
   832c0:	b9000060 	str	w0, [x3]
   832c4:	b9000044 	str	w4, [x2]
   832c8:	528012c0 	mov	w0, #0x96                  	// #150
   832cc:	97ffff81 	bl	830d0 <fat32_open+0x6fc>
   832d0:	52a00780 	mov	w0, #0x3c0000              	// #3932160
   832d4:	b9000020 	str	w0, [x1]
   832d8:	528012c0 	mov	w0, #0x96                  	// #150
   832dc:	97ffff7d 	bl	830d0 <fat32_open+0x6fc>
   832e0:	b900005f 	str	wzr, [x2]
   832e4:	b900003f 	str	wzr, [x1]
   832e8:	d2801f80 	mov	x0, #0xfc                  	// #252
   832ec:	f2a7e600 	movk	x0, #0x3f30, lsl #16
   832f0:	b0000014 	adrp	x20, 84000 <__func__.3144+0x458>
   832f4:	913e6281 	add	x1, x20, #0xf98
   832f8:	b9400000 	ldr	w0, [x0]
   832fc:	d3505c00 	ubfx	x0, x0, #16, #8
   83300:	f9000420 	str	x0, [x1, #8]
   83304:	d2800500 	mov	x0, #0x28                  	// #40
   83308:	f2a7e600 	movk	x0, #0x3f30, lsl #16
   8330c:	b900001f 	str	wzr, [x0]
   83310:	b9400260 	ldr	w0, [x19]
   83314:	32080000 	orr	w0, w0, #0x1000000
   83318:	b9000260 	str	w0, [x19]
   8331c:	52800140 	mov	w0, #0xa                   	// #10
   83320:	97fff94c 	bl	81850 <wait_micros>
   83324:	b9400260 	ldr	w0, [x19]
   83328:	36c001a0 	tbz	w0, #24, 8335c <sd_init+0x168>
   8332c:	d10006b5 	sub	x21, x21, #0x1
   83330:	b10006bf 	cmn	x21, #0x1
   83334:	54ffff41 	b.ne	8331c <sd_init+0x128>  // b.any
   83338:	12800033 	mov	w19, #0xfffffffe            	// #-2
   8333c:	2a1303e0 	mov	w0, w19
   83340:	f9402bfb 	ldr	x27, [sp, #80]
   83344:	a94153f3 	ldp	x19, x20, [sp, #16]
   83348:	a9425bf5 	ldp	x21, x22, [sp, #32]
   8334c:	a94363f7 	ldp	x23, x24, [sp, #48]
   83350:	a9446bf9 	ldp	x25, x26, [sp, #64]
   83354:	a8c67bfd 	ldp	x29, x30, [sp], #96
   83358:	d65f03c0 	ret
   8335c:	b4fffef5 	cbz	x21, 83338 <sd_init+0x144>
   83360:	b9400260 	ldr	w0, [x19]
   83364:	52800021 	mov	w1, #0x1                   	// #1
   83368:	72a001c1 	movk	w1, #0xe, lsl #16
   8336c:	2a010000 	orr	w0, w0, w1
   83370:	b9000260 	str	w0, [x19]
   83374:	52800140 	mov	w0, #0xa                   	// #10
   83378:	97fff936 	bl	81850 <wait_micros>
   8337c:	52835000 	mov	w0, #0x1a80                	// #6784
   83380:	72a000c0 	movk	w0, #0x6, lsl #16
   83384:	97ffff00 	bl	82f84 <fat32_open+0x5b0>
   83388:	2a0003f3 	mov	w19, w0
   8338c:	35fffd80 	cbnz	w0, 8333c <sd_init+0x148>
   83390:	d2800702 	mov	x2, #0x38                  	// #56
   83394:	f2a7e602 	movk	x2, #0x3f30, lsl #16
   83398:	12800001 	mov	w1, #0xffffffff            	// #-1
   8339c:	d0000015 	adrp	x21, 85000 <mem_bin+0x30>
   833a0:	b9000041 	str	w1, [x2]
   833a4:	d2800682 	mov	x2, #0x34                  	// #52
   833a8:	f2a7e602 	movk	x2, #0x3f30, lsl #16
   833ac:	aa1503f7 	mov	x23, x21
   833b0:	b9000041 	str	w1, [x2]
   833b4:	913e6281 	add	x1, x20, #0xf98
   833b8:	f900babf 	str	xzr, [x21, #368]
   833bc:	f907ce9f 	str	xzr, [x20, #3992]
   833c0:	a9017c3f 	stp	xzr, xzr, [x1, #16]
   833c4:	52800001 	mov	w1, #0x0                   	// #0
   833c8:	97fffe80 	bl	82dc8 <fat32_open+0x3f4>
   833cc:	f940bab3 	ldr	x19, [x21, #368]
   833d0:	b5fffb73 	cbnz	x19, 8333c <sd_init+0x148>
   833d4:	52803541 	mov	w1, #0x1aa                 	// #426
   833d8:	52a10040 	mov	w0, #0x8020000             	// #134348800
   833dc:	97fffe7b 	bl	82dc8 <fat32_open+0x3f4>
   833e0:	f940bab3 	ldr	x19, [x21, #368]
   833e4:	b5fffad3 	cbnz	x19, 8333c <sd_init+0x148>
   833e8:	52900016 	mov	w22, #0x8000                	// #32768
   833ec:	72aa3ff6 	movk	w22, #0x51ff, lsl #16
   833f0:	d28000d5 	mov	x21, #0x6                   	// #6
   833f4:	d2800001 	mov	x1, #0x0                   	// #0
   833f8:	1400000f 	b	83434 <sd_init+0x240>
   833fc:	52803200 	mov	w0, #0x190                 	// #400
   83400:	97ffff34 	bl	830d0 <fat32_open+0x6fc>
   83404:	2a1603e1 	mov	w1, w22
   83408:	52b52040 	mov	w0, #0xa9020000            	// #-1459486720
   8340c:	97fffe6f 	bl	82dc8 <fat32_open+0x3f4>
   83410:	93407c01 	sxtw	x1, w0
   83414:	36f80100 	tbz	w0, #31, 83434 <sd_init+0x240>
   83418:	7211201f 	tst	w0, #0xff8000
   8341c:	540000c0 	b.eq	83434 <sd_init+0x240>  // b.none
   83420:	36f000a0 	tbz	w0, #30, 83434 <sd_init+0x240>
   83424:	f940baf3 	ldr	x19, [x23, #368]
   83428:	d1000660 	sub	x0, x19, #0x1
   8342c:	b1000c1f 	cmn	x0, #0x3
   83430:	54fff869 	b.ls	8333c <sd_init+0x148>  // b.plast
   83434:	b7f80381 	tbnz	x1, #63, 834a4 <sd_init+0x2b0>
   83438:	d10006b5 	sub	x21, x21, #0x1
   8343c:	b10006bf 	cmn	x21, #0x1
   83440:	54fffde1 	b.ne	833fc <sd_init+0x208>  // b.any
   83444:	12800013 	mov	w19, #0xffffffff            	// #-1
   83448:	17ffffbd 	b	8333c <sd_init+0x148>
   8344c:	52800020 	mov	w0, #0x1                   	// #1
   83450:	97fff900 	bl	81850 <wait_micros>
   83454:	aa1603e0 	mov	x0, x22
   83458:	aa0003f6 	mov	x22, x0
   8345c:	14000043 	b	83568 <sd_init+0x374>
   83460:	d2800501 	mov	x1, #0x28                  	// #40
   83464:	f2a7e601 	movk	x1, #0x3f30, lsl #16
   83468:	b9400020 	ldr	w0, [x1]
   8346c:	321f0000 	orr	w0, w0, #0x2
   83470:	b9000020 	str	w0, [x1]
   83474:	913e6281 	add	x1, x20, #0xf98
   83478:	f9400820 	ldr	x0, [x1, #16]
   8347c:	36c80080 	tbz	w0, #25, 8348c <sd_init+0x298>
   83480:	b4000078 	cbz	x24, 8348c <sd_init+0x298>
   83484:	927ff800 	and	x0, x0, #0xfffffffffffffffe
   83488:	f9000820 	str	x0, [x1, #16]
   8348c:	913e6294 	add	x20, x20, #0xf98
   83490:	92401ea1 	and	x1, x21, #0xff
   83494:	f9400a95 	ldr	x21, [x20, #16]
   83498:	aa0102a1 	orr	x1, x21, x1
   8349c:	f9000a81 	str	x1, [x20, #16]
   834a0:	17ffffa7 	b	8333c <sd_init+0x148>
   834a4:	b4fffd15 	cbz	x21, 83444 <sd_init+0x250>
   834a8:	f271203f 	tst	x1, #0xff8000
   834ac:	54fff460 	b.eq	83338 <sd_init+0x144>  // b.none
   834b0:	92620038 	and	x24, x1, #0x40000000
   834b4:	531e7835 	ubfx	w21, w1, #30, #1
   834b8:	52a04020 	mov	w0, #0x2010000             	// #33619968
   834bc:	52800001 	mov	w1, #0x0                   	// #0
   834c0:	97fffe42 	bl	82dc8 <fat32_open+0x3f4>
   834c4:	52800001 	mov	w1, #0x0                   	// #0
   834c8:	52a06040 	mov	w0, #0x3020000             	// #50462720
   834cc:	97fffe3f 	bl	82dc8 <fat32_open+0x3f4>
   834d0:	f940baf3 	ldr	x19, [x23, #368]
   834d4:	93407c00 	sxtw	x0, w0
   834d8:	f907ce80 	str	x0, [x20, #3992]
   834dc:	b5fff313 	cbnz	x19, 8333c <sd_init+0x148>
   834e0:	528f0800 	mov	w0, #0x7840                	// #30784
   834e4:	72a02fa0 	movk	w0, #0x17d, lsl #16
   834e8:	97fffea7 	bl	82f84 <fat32_open+0x5b0>
   834ec:	2a0003f3 	mov	w19, w0
   834f0:	35fff260 	cbnz	w0, 8333c <sd_init+0x148>
   834f4:	b94f9a81 	ldr	w1, [x20, #3992]
   834f8:	52a0e060 	mov	w0, #0x7030000             	// #117637120
   834fc:	97fffe33 	bl	82dc8 <fat32_open+0x3f4>
   83500:	f940baf3 	ldr	x19, [x23, #368]
   83504:	b5fff1d3 	cbnz	x19, 8333c <sd_init+0x148>
   83508:	52800040 	mov	w0, #0x2                   	// #2
   8350c:	97fffdd5 	bl	82c60 <fat32_open+0x28c>
   83510:	35fff9a0 	cbnz	w0, 83444 <sd_init+0x250>
   83514:	d2800080 	mov	x0, #0x4                   	// #4
   83518:	f2a7e600 	movk	x0, #0x3f30, lsl #16
   8351c:	52800101 	mov	w1, #0x8                   	// #8
   83520:	72a00021 	movk	w1, #0x1, lsl #16
   83524:	b9000001 	str	w1, [x0]
   83528:	52800001 	mov	w1, #0x0                   	// #0
   8352c:	52800200 	mov	w0, #0x10                  	// #16
   83530:	72b66440 	movk	w0, #0xb322, lsl #16
   83534:	97fffe25 	bl	82dc8 <fat32_open+0x3f4>
   83538:	f940baf3 	ldr	x19, [x23, #368]
   8353c:	b5fff013 	cbnz	x19, 8333c <sd_init+0x148>
   83540:	52800400 	mov	w0, #0x20                  	// #32
   83544:	97fffdf1 	bl	82d08 <fat32_open+0x334>
   83548:	2a0003f3 	mov	w19, w0
   8354c:	35fff7c0 	cbnz	w0, 83444 <sd_init+0x250>
   83550:	913e6299 	add	x25, x20, #0xf98
   83554:	d280049a 	mov	x26, #0x24                  	// #36
   83558:	f2a7e61a 	movk	x26, #0x3f30, lsl #16
   8355c:	d280041b 	mov	x27, #0x20                  	// #32
   83560:	f2a7e61b 	movk	x27, #0x3f30, lsl #16
   83564:	d2800016 	mov	x22, #0x0                   	// #0
   83568:	b9400340 	ldr	w0, [x26]
   8356c:	365ff700 	tbz	w0, #11, 8344c <sd_init+0x258>
   83570:	910006c0 	add	x0, x22, #0x1
   83574:	b9400361 	ldr	w1, [x27]
   83578:	8b160f36 	add	x22, x25, x22, lsl #3
   8357c:	f100081f 	cmp	x0, #0x2
   83580:	2a0103e1 	mov	w1, w1
   83584:	f9000ac1 	str	x1, [x22, #16]
   83588:	54fff681 	b.ne	83458 <sd_init+0x264>  // b.any
   8358c:	f9400b20 	ldr	x0, [x25, #16]
   83590:	3657f720 	tbz	w0, #10, 83474 <sd_init+0x280>
   83594:	f9400321 	ldr	x1, [x25]
   83598:	52b0c040 	mov	w0, #0x86020000            	// #-2046689280
   8359c:	321f0021 	orr	w1, w1, #0x2
   835a0:	97fffe0a 	bl	82dc8 <fat32_open+0x3f4>
   835a4:	f940bae0 	ldr	x0, [x23, #368]
   835a8:	b4fff5c0 	cbz	x0, 83460 <sd_init+0x26c>
   835ac:	2a0003f3 	mov	w19, w0
   835b0:	17ffff63 	b	8333c <sd_init+0x148>
